(ccopy_reg
_reconstructor
p0
(cnltk.classify.naivebayes
NaiveBayesClassifier
p1
c__builtin__
object
p2
Ntp3
Rp4
(dp5
S'_labels'
p6
(lp7
I00
aI01
asS'_feature_probdist'
p8
(dp9
(I00
S'JJ_5_to_30'
p10
tp11
g0
(cnltk.probability
ELEProbDist
p12
g2
Ntp13
Rp14
(dp15
S'_gamma'
p16
F0.5
sS'_N'
p17
I210
sS'_freqdist'
p18
cnltk.probability
FreqDist
p19
((dp20
I00
I163
sI01
I47
stp21
Rp22
sS'_bins'
p23
I2
sS'_divisor'
p24
F211.0
sbs(I00
S'the'
p25
tp26
g0
(g12
g2
Ntp27
Rp28
(dp29
g16
F0.5
sg17
I210
sg18
g19
((dp30
I0
I210
stp31
Rp32
sg23
I1
sg24
F210.5
sbs(I01
S'JJ_40_to_90'
p33
tp34
g0
(g12
g2
Ntp35
Rp36
(dp37
g16
F0.5
sg17
I745
sg18
g19
((dp38
I00
I689
sI01
I56
stp39
Rp40
sg23
I2
sg24
F746.0
sbs(I01
S'IN_<_5'
p41
tp42
g0
(g12
g2
Ntp43
Rp44
(dp45
g16
F0.5
sg17
I745
sg18
g19
((dp46
I00
I355
sI01
I390
stp47
Rp48
sg23
I2
sg24
F746.0
sbs(I00
S'PRP_5_to_18'
p49
tp50
g0
(g12
g2
Ntp51
Rp52
(dp53
g16
F0.5
sg17
I210
sg18
g19
((dp54
I00
I178
sI01
I32
stp55
Rp56
sg23
I2
sg24
F211.0
sbs(I00
S'NNS_>=_90'
p57
tp58
g0
(g12
g2
Ntp59
Rp60
(dp61
g16
F0.5
sg17
I210
sg18
g19
((dp62
I00
I210
stp63
Rp64
sg23
I2
sg24
F211.0
sbs(I00
S'DT_40_to_50'
p65
tp66
g0
(g12
g2
Ntp67
Rp68
(dp69
g16
F0.5
sg17
I210
sg18
g19
((dp70
I00
I208
sI01
I2
stp71
Rp72
sg23
I2
sg24
F211.0
sbs(I00
S'VBD_>=_32'
p73
tp74
g0
(g12
g2
Ntp75
Rp76
(dp77
g16
F0.5
sg17
I210
sg18
g19
((dp78
I00
I204
sI01
I6
stp79
Rp80
sg23
I2
sg24
F211.0
sbs(I01
S'this'
p81
tp82
g0
(g12
g2
Ntp83
Rp84
(dp85
g16
F0.5
sg17
I745
sg18
g19
((dp86
I0
I745
stp87
Rp88
sg23
I1
sg24
F745.5
sbs(I00
S'is'
p89
tp90
g0
(g12
g2
Ntp91
Rp92
(dp93
g16
F0.5
sg17
I210
sg18
g19
((dp94
I0
I210
stp95
Rp96
sg23
I1
sg24
F210.5
sbs(I01
S'JJ_30_to_40'
p97
tp98
g0
(g12
g2
Ntp99
Rp100
(dp101
g16
F0.5
sg17
I745
sg18
g19
((dp102
I00
I690
sI01
I55
stp103
Rp104
sg23
I2
sg24
F746.0
sbs(I00
S'RB_>=_18'
p105
tp106
g0
(g12
g2
Ntp107
Rp108
(dp109
g16
F0.5
sg17
I210
sg18
g19
((dp110
I00
I172
sI01
I38
stp111
Rp112
sg23
I2
sg24
F211.0
sbs(I01
S'JJ_5_to_30'
p113
tp114
g0
(g12
g2
Ntp115
Rp116
(dp117
g16
F0.5
sg17
I745
sg18
g19
((dp118
I00
I490
sI01
I255
stp119
Rp120
sg23
I2
sg24
F746.0
sbs(I00
S'I'
p121
tp122
g0
(g12
g2
Ntp123
Rp124
(dp125
g16
F0.5
sg17
I210
sg18
g19
((dp126
I0
I210
stp127
Rp128
sg23
I1
sg24
F210.5
sbs(I01
S'he'
p129
tp130
g0
(g12
g2
Ntp131
Rp132
(dp133
g16
F0.5
sg17
I745
sg18
g19
((dp134
I0
I745
stp135
Rp136
sg23
I1
sg24
F745.5
sbs(I01
S'VBD_<_5'
p137
tp138
g0
(g12
g2
Ntp139
Rp140
(dp141
g16
F0.5
sg17
I745
sg18
g19
((dp142
I00
I183
sI01
I562
stp143
Rp144
sg23
I2
sg24
F746.0
sbs(I01
S'she'
p145
tp146
g0
(g12
g2
Ntp147
Rp148
(dp149
g16
F0.5
sg17
I745
sg18
g19
((dp150
I0
I745
stp151
Rp152
sg23
I1
sg24
F745.5
sbs(I00
S'PRP_<_5'
p153
tp154
g0
(g12
g2
Ntp155
Rp156
(dp157
g16
F0.5
sg17
I210
sg18
g19
((dp158
I00
I131
sI01
I79
stp159
Rp160
sg23
I2
sg24
F211.0
sbs(I01
S'RB_>=_18'
p161
tp162
g0
(g12
g2
Ntp163
Rp164
(dp165
g16
F0.5
sg17
I745
sg18
g19
((dp166
I00
I611
sI01
I134
stp167
Rp168
sg23
I2
sg24
F746.0
sbs(I01
S'DT_40_to_50'
p169
tp170
g0
(g12
g2
Ntp171
Rp172
(dp173
g16
F0.5
sg17
I745
sg18
g19
((dp174
I00
I743
sI01
I2
stp175
Rp176
sg23
I2
sg24
F746.0
sbs(I01
S'do'
p177
tp178
g0
(g12
g2
Ntp179
Rp180
(dp181
g16
F0.5
sg17
I745
sg18
g19
((dp182
I0
I745
stp183
Rp184
sg23
I1
sg24
F745.5
sbs(I01
g25
tp185
g0
(g12
g2
Ntp186
Rp187
(dp188
g16
F0.5
sg17
I745
sg18
g19
((dp189
I0
I745
stp190
Rp191
sg23
I1
sg24
F745.5
sbs(I01
S'DT_>=_60'
p192
tp193
g0
(g12
g2
Ntp194
Rp195
(dp196
g16
F0.5
sg17
I745
sg18
g19
((dp197
I00
I744
sI01
I1
stp198
Rp199
sg23
I2
sg24
F746.0
sbs(I00
S'NN_5_to_25'
p200
tp201
g0
(g12
g2
Ntp202
Rp203
(dp204
g16
F0.5
sg17
I210
sg18
g19
((dp205
I00
I163
sI01
I47
stp206
Rp207
sg23
I2
sg24
F211.0
sbs(I00
S'JJ_>=_90'
p208
tp209
g0
(g12
g2
Ntp210
Rp211
(dp212
g16
F0.5
sg17
I210
sg18
g19
((dp213
I00
I204
sI01
I6
stp214
Rp215
sg23
I2
sg24
F211.0
sbs(I01
S'NNS_>=_90'
p216
tp217
g0
(g12
g2
Ntp218
Rp219
(dp220
g16
F0.5
sg17
I745
sg18
g19
((dp221
I00
I738
sI01
I7
stp222
Rp223
sg23
I2
sg24
F746.0
sbs(I00
S'DT_50_to_60'
p224
tp225
g0
(g12
g2
Ntp226
Rp227
(dp228
g16
F0.5
sg17
I210
sg18
g19
((dp229
I00
I199
sI01
I11
stp230
Rp231
sg23
I2
sg24
F211.0
sbs(I01
g121
tp232
g0
(g12
g2
Ntp233
Rp234
(dp235
g16
F0.5
sg17
I745
sg18
g19
((dp236
I0
I745
stp237
Rp238
sg23
I1
sg24
F745.5
sbs(I01
S'RB_<_5'
p239
tp240
g0
(g12
g2
Ntp241
Rp242
(dp243
g16
F0.5
sg17
I745
sg18
g19
((dp244
I00
I227
sI01
I518
stp245
Rp246
sg23
I2
sg24
F746.0
sbs(I01
S'RB_5_to_18'
p247
tp248
g0
(g12
g2
Ntp249
Rp250
(dp251
g16
F0.5
sg17
I745
sg18
g19
((dp252
I00
I652
sI01
I93
stp253
Rp254
sg23
I2
sg24
F746.0
sbs(I00
g129
tp255
g0
(g12
g2
Ntp256
Rp257
(dp258
g16
F0.5
sg17
I210
sg18
g19
((dp259
I0
I210
stp260
Rp261
sg23
I1
sg24
F210.5
sbs(I00
S'VBD_<_5'
p262
tp263
g0
(g12
g2
Ntp264
Rp265
(dp266
g16
F0.5
sg17
I210
sg18
g19
((dp267
I00
I45
sI01
I165
stp268
Rp269
sg23
I2
sg24
F211.0
sbs(I01
g89
tp270
g0
(g12
g2
Ntp271
Rp272
(dp273
g16
F0.5
sg17
I745
sg18
g19
((dp274
I0
I745
stp275
Rp276
sg23
I1
sg24
F745.5
sbs(I01
S'or'
p277
tp278
g0
(g12
g2
Ntp279
Rp280
(dp281
g16
F0.5
sg17
I745
sg18
g19
((dp282
I0
I745
stp283
Rp284
sg23
I1
sg24
F745.5
sbs(I00
S'IN_>=_20'
p285
tp286
g0
(g12
g2
Ntp287
Rp288
(dp289
g16
F0.5
sg17
I210
sg18
g19
((dp290
I00
I131
sI01
I79
stp291
Rp292
sg23
I2
sg24
F211.0
sbs(I01
S'NNS_<_5'
p293
tp294
g0
(g12
g2
Ntp295
Rp296
(dp297
g16
F0.5
sg17
I745
sg18
g19
((dp298
I00
I235
sI01
I510
stp299
Rp300
sg23
I2
sg24
F746.0
sbs(I00
S'NN_>=_90'
p301
tp302
g0
(g12
g2
Ntp303
Rp304
(dp305
g16
F0.5
sg17
I210
sg18
g19
((dp306
I00
I206
sI01
I4
stp307
Rp308
sg23
I2
sg24
F211.0
sbs(I00
g177
tp309
g0
(g12
g2
Ntp310
Rp311
(dp312
g16
F0.5
sg17
I210
sg18
g19
((dp313
I0
I210
stp314
Rp315
sg23
I1
sg24
F210.5
sbs(I00
g145
tp316
g0
(g12
g2
Ntp317
Rp318
(dp319
g16
F0.5
sg17
I210
sg18
g19
((dp320
I0
I210
stp321
Rp322
sg23
I1
sg24
F210.5
sbs(I00
S'IN_5_to_20'
p323
tp324
g0
(g12
g2
Ntp325
Rp326
(dp327
g16
F0.5
sg17
I210
sg18
g19
((dp328
I00
I180
sI01
I30
stp329
Rp330
sg23
I2
sg24
F211.0
sbs(I01
S'JJ_>=_90'
p331
tp332
g0
(g12
g2
Ntp333
Rp334
(dp335
g16
F0.5
sg17
I745
sg18
g19
((dp336
I00
I745
stp337
Rp338
sg23
I2
sg24
F746.0
sbs(I01
S'count_quest_keyword'
p339
tp340
g0
(g12
g2
Ntp341
Rp342
(dp343
g16
F0.5
sg17
I745
sg18
g19
((dp344
I0
I22
sI1
I186
sI2
I449
sI3
I83
sI4
I5
stp345
Rp346
sg23
I5
sg24
F747.5
sbs(I00
S'RB_<_5'
p347
tp348
g0
(g12
g2
Ntp349
Rp350
(dp351
g16
F0.5
sg17
I210
sg18
g19
((dp352
I00
I66
sI01
I144
stp353
Rp354
sg23
I2
sg24
F211.0
sbs(I00
S'DT_>=_60'
p355
tp356
g0
(g12
g2
Ntp357
Rp358
(dp359
g16
F0.5
sg17
I210
sg18
g19
((dp360
I00
I208
sI01
I2
stp361
Rp362
sg23
I2
sg24
F211.0
sbs(I00
S'IN_<_5'
p363
tp364
g0
(g12
g2
Ntp365
Rp366
(dp367
g16
F0.5
sg17
I210
sg18
g19
((dp368
I00
I109
sI01
I101
stp369
Rp370
sg23
I2
sg24
F211.0
sbs(I01
S'NN_5_to_25'
p371
tp372
g0
(g12
g2
Ntp373
Rp374
(dp375
g16
F0.5
sg17
I745
sg18
g19
((dp376
I00
I606
sI01
I139
stp377
Rp378
sg23
I2
sg24
F746.0
sbs(I01
S'NNS_5_to_20'
p379
tp380
g0
(g12
g2
Ntp381
Rp382
(dp383
g16
F0.5
sg17
I745
sg18
g19
((dp384
I00
I679
sI01
I66
stp385
Rp386
sg23
I2
sg24
F746.0
sbs(I01
S'NN_25_to_40'
p387
tp388
g0
(g12
g2
Ntp389
Rp390
(dp391
g16
F0.5
sg17
I745
sg18
g19
((dp392
I00
I463
sI01
I282
stp393
Rp394
sg23
I2
sg24
F746.0
sbs(I01
S'PRP_>=_18'
p395
tp396
g0
(g12
g2
Ntp397
Rp398
(dp399
g16
F0.5
sg17
I745
sg18
g19
((dp400
I00
I337
sI01
I408
stp401
Rp402
sg23
I2
sg24
F746.0
sbs(I01
S'DT_50_to_60'
p403
tp404
g0
(g12
g2
Ntp405
Rp406
(dp407
g16
F0.5
sg17
I745
sg18
g19
((dp408
I00
I741
sI01
I4
stp409
Rp410
sg23
I2
sg24
F746.0
sbs(I01
S'NNS_50_to_90'
p411
tp412
g0
(g12
g2
Ntp413
Rp414
(dp415
g16
F0.5
sg17
I745
sg18
g19
((dp416
I00
I719
sI01
I26
stp417
Rp418
sg23
I2
sg24
F746.0
sbs(I01
S'NN_>=_90'
p419
tp420
g0
(g12
g2
Ntp421
Rp422
(dp423
g16
F0.5
sg17
I745
sg18
g19
((dp424
I00
I734
sI01
I11
stp425
Rp426
sg23
I2
sg24
F746.0
sbs(I00
S'NNS_20_to_50'
p427
tp428
g0
(g12
g2
Ntp429
Rp430
(dp431
g16
F0.5
sg17
I210
sg18
g19
((dp432
I00
I189
sI01
I21
stp433
Rp434
sg23
I2
sg24
F211.0
sbs(I01
S'NN_40_to_90'
p435
tp436
g0
(g12
g2
Ntp437
Rp438
(dp439
g16
F0.5
sg17
I745
sg18
g19
((dp440
I00
I614
sI01
I131
stp441
Rp442
sg23
I2
sg24
F746.0
sbs(I01
S'JJ_<_5'
p443
tp444
g0
(g12
g2
Ntp445
Rp446
(dp447
g16
F0.5
sg17
I745
sg18
g19
((dp448
I00
I366
sI01
I379
stp449
Rp450
sg23
I2
sg24
F746.0
sbs(I01
S'DT_<_40'
p451
tp452
g0
(g12
g2
Ntp453
Rp454
(dp455
g16
F0.5
sg17
I745
sg18
g19
((dp456
I00
I7
sI01
I738
stp457
Rp458
sg23
I2
sg24
F746.0
sbs(I00
g277
tp459
g0
(g12
g2
Ntp460
Rp461
(dp462
g16
F0.5
sg17
I210
sg18
g19
((dp463
I0
I210
stp464
Rp465
sg23
I1
sg24
F210.5
sbs(I00
S'VBD_5_to_32'
p466
tp467
g0
(g12
g2
Ntp468
Rp469
(dp470
g16
F0.5
sg17
I210
sg18
g19
((dp471
I00
I171
sI01
I39
stp472
Rp473
sg23
I2
sg24
F211.0
sbs(I00
S'NN_40_to_90'
p474
tp475
g0
(g12
g2
Ntp476
Rp477
(dp478
g16
F0.5
sg17
I210
sg18
g19
((dp479
I00
I176
sI01
I34
stp480
Rp481
sg23
I2
sg24
F211.0
sbs(I00
S'NNS_<_5'
p482
tp483
g0
(g12
g2
Ntp484
Rp485
(dp486
g16
F0.5
sg17
I210
sg18
g19
((dp487
I00
I42
sI01
I168
stp488
Rp489
sg23
I2
sg24
F211.0
sbs(I01
S'NNS_20_to_50'
p490
tp491
g0
(g12
g2
Ntp492
Rp493
(dp494
g16
F0.5
sg17
I745
sg18
g19
((dp495
I00
I609
sI01
I136
stp496
Rp497
sg23
I2
sg24
F746.0
sbs(I00
S'NN_25_to_40'
p498
tp499
g0
(g12
g2
Ntp500
Rp501
(dp502
g16
F0.5
sg17
I210
sg18
g19
((dp503
I00
I150
sI01
I60
stp504
Rp505
sg23
I2
sg24
F211.0
sbs(I00
S'DT_<_40'
p506
tp507
g0
(g12
g2
Ntp508
Rp509
(dp510
g16
F0.5
sg17
I210
sg18
g19
((dp511
I00
I15
sI01
I195
stp512
Rp513
sg23
I2
sg24
F211.0
sbs(I00
S'RB_5_to_18'
p514
tp515
g0
(g12
g2
Ntp516
Rp517
(dp518
g16
F0.5
sg17
I210
sg18
g19
((dp519
I00
I182
sI01
I28
stp520
Rp521
sg23
I2
sg24
F211.0
sbs(I01
S'IN_5_to_20'
p522
tp523
g0
(g12
g2
Ntp524
Rp525
(dp526
g16
F0.5
sg17
I745
sg18
g19
((dp527
I00
I591
sI01
I154
stp528
Rp529
sg23
I2
sg24
F746.0
sbs(I01
S'PRP_5_to_18'
p530
tp531
g0
(g12
g2
Ntp532
Rp533
(dp534
g16
F0.5
sg17
I745
sg18
g19
((dp535
I00
I604
sI01
I141
stp536
Rp537
sg23
I2
sg24
F746.0
sbs(I00
S'PRP_>=_18'
p538
tp539
g0
(g12
g2
Ntp540
Rp541
(dp542
g16
F0.5
sg17
I210
sg18
g19
((dp543
I00
I111
sI01
I99
stp544
Rp545
sg23
I2
sg24
F211.0
sbs(I00
g339
tp546
g0
(g12
g2
Ntp547
Rp548
(dp549
g16
F0.5
sg17
I210
sg18
g19
((dp550
I0
I145
sI1
I58
sI2
I6
sI4
I1
stp551
Rp552
sg23
I5
sg24
F212.5
sbs(I01
S'NN_<_5'
p553
tp554
g0
(g12
g2
Ntp555
Rp556
(dp557
g16
F0.5
sg17
I745
sg18
g19
((dp558
I00
I563
sI01
I182
stp559
Rp560
sg23
I2
sg24
F746.0
sbs(I00
S'JJ_40_to_90'
p561
tp562
g0
(g12
g2
Ntp563
Rp564
(dp565
g16
F0.5
sg17
I210
sg18
g19
((dp566
I00
I201
sI01
I9
stp567
Rp568
sg23
I2
sg24
F211.0
sbs(I01
S'PRP_<_5'
p569
tp570
g0
(g12
g2
Ntp571
Rp572
(dp573
g16
F0.5
sg17
I745
sg18
g19
((dp574
I00
I549
sI01
I196
stp575
Rp576
sg23
I2
sg24
F746.0
sbs(I01
S'VBD_5_to_32'
p577
tp578
g0
(g12
g2
Ntp579
Rp580
(dp581
g16
F0.5
sg17
I745
sg18
g19
((dp582
I00
I591
sI01
I154
stp583
Rp584
sg23
I2
sg24
F746.0
sbs(I00
S'NNS_5_to_20'
p585
tp586
g0
(g12
g2
Ntp587
Rp588
(dp589
g16
F0.5
sg17
I210
sg18
g19
((dp590
I00
I193
sI01
I17
stp591
Rp592
sg23
I2
sg24
F211.0
sbs(I00
S'JJ_30_to_40'
p593
tp594
g0
(g12
g2
Ntp595
Rp596
(dp597
g16
F0.5
sg17
I210
sg18
g19
((dp598
I00
I201
sI01
I9
stp599
Rp600
sg23
I2
sg24
F211.0
sbs(I01
S'IN_>=_20'
p601
tp602
g0
(g12
g2
Ntp603
Rp604
(dp605
g16
F0.5
sg17
I745
sg18
g19
((dp606
I00
I544
sI01
I201
stp607
Rp608
sg23
I2
sg24
F746.0
sbs(I00
S'NNS_50_to_90'
p609
tp610
g0
(g12
g2
Ntp611
Rp612
(dp613
g16
F0.5
sg17
I210
sg18
g19
((dp614
I00
I206
sI01
I4
stp615
Rp616
sg23
I2
sg24
F211.0
sbs(I00
S'JJ_<_5'
p617
tp618
g0
(g12
g2
Ntp619
Rp620
(dp621
g16
F0.5
sg17
I210
sg18
g19
((dp622
I00
I71
sI01
I139
stp623
Rp624
sg23
I2
sg24
F211.0
sbs(I00
S'NN_<_5'
p625
tp626
g0
(g12
g2
Ntp627
Rp628
(dp629
g16
F0.5
sg17
I210
sg18
g19
((dp630
I00
I145
sI01
I65
stp631
Rp632
sg23
I2
sg24
F211.0
sbs(I00
g81
tp633
g0
(g12
g2
Ntp634
Rp635
(dp636
g16
F0.5
sg17
I210
sg18
g19
((dp637
I0
I210
stp638
Rp639
sg23
I1
sg24
F210.5
sbs(I00
S'if'
p640
tp641
g0
(g12
g2
Ntp642
Rp643
(dp644
g16
F0.5
sg17
I210
sg18
g19
((dp645
I0
I210
stp646
Rp647
sg23
I1
sg24
F210.5
sbs(I01
g640
tp648
g0
(g12
g2
Ntp649
Rp650
(dp651
g16
F0.5
sg17
I745
sg18
g19
((dp652
I0
I745
stp653
Rp654
sg23
I1
sg24
F745.5
sbs(I01
S'VBD_>=_32'
p655
tp656
g0
(g12
g2
Ntp657
Rp658
(dp659
g16
F0.5
sg17
I745
sg18
g19
((dp660
I00
I716
sI01
I29
stp661
Rp662
sg23
I2
sg24
F746.0
sbssS'_label_probdist'
p663
g0
(g12
g2
Ntp664
Rp665
(dp666
g16
F0.5
sg17
I955
sg18
g19
((dp667
I00
I210
sI01
I745
stp668
Rp669
sg23
I2
sg24
F956.0
sbsbF0.896551724137931
tp670
.