(ccopy_reg
_reconstructor
p0
(cnltk.classify.naivebayes
NaiveBayesClassifier
p1
c__builtin__
object
p2
Ntp3
Rp4
(dp5
S'_labels'
p6
(lp7
I00
aI01
asS'_feature_probdist'
p8
(dp9
(I01
S'contains_what'
p10
tp11
g0
(cnltk.probability
ELEProbDist
p12
g2
Ntp13
Rp14
(dp15
S'_gamma'
p16
F0.5
sS'_N'
p17
I750
sS'_freqdist'
p18
cnltk.probability
FreqDist
p19
((dp20
I00
I597
sI01
I153
stp21
Rp22
sS'_bins'
p23
I2
sS'_divisor'
p24
F751.0
sbs(I01
S'contains_when'
p25
tp26
g0
(g12
g2
Ntp27
Rp28
(dp29
g16
F0.5
sg17
I750
sg18
g19
((dp30
I00
I738
sI01
I12
stp31
Rp32
sg23
I2
sg24
F751.0
sbs(I00
S'contains_what'
p33
tp34
g0
(g12
g2
Ntp35
Rp36
(dp37
g16
F0.5
sg17
I205
sg18
g19
((dp38
I00
I200
sI01
I5
stp39
Rp40
sg23
I2
sg24
F206.0
sbs(I01
S'contains_why'
p41
tp42
g0
(g12
g2
Ntp43
Rp44
(dp45
g16
F0.5
sg17
I750
sg18
g19
((dp46
I00
I739
sI01
I11
stp47
Rp48
sg23
I2
sg24
F751.0
sbs(I00
S'contains_who'
p49
tp50
g0
(g12
g2
Ntp51
Rp52
(dp53
g16
F0.5
sg17
I205
sg18
g19
((dp54
I00
I201
sI01
I4
stp55
Rp56
sg23
I2
sg24
F206.0
sbs(I01
S'contains_how'
p57
tp58
g0
(g12
g2
Ntp59
Rp60
(dp61
g16
F0.5
sg17
I750
sg18
g19
((dp62
I00
I704
sI01
I46
stp63
Rp64
sg23
I2
sg24
F751.0
sbs(I00
S'contains_why'
p65
tp66
g0
(g12
g2
Ntp67
Rp68
(dp69
g16
F0.5
sg17
I205
sg18
g19
((dp70
I00
I205
stp71
Rp72
sg23
I2
sg24
F206.0
sbs(I01
S'contains_who'
p73
tp74
g0
(g12
g2
Ntp75
Rp76
(dp77
g16
F0.5
sg17
I750
sg18
g19
((dp78
I00
I720
sI01
I30
stp79
Rp80
sg23
I2
sg24
F751.0
sbs(I01
S'contains_where'
p81
tp82
g0
(g12
g2
Ntp83
Rp84
(dp85
g16
F0.5
sg17
I750
sg18
g19
((dp86
I00
I739
sI01
I11
stp87
Rp88
sg23
I2
sg24
F751.0
sbs(I00
S'contains_when'
p89
tp90
g0
(g12
g2
Ntp91
Rp92
(dp93
g16
F0.5
sg17
I205
sg18
g19
((dp94
I00
I200
sI01
I5
stp95
Rp96
sg23
I2
sg24
F206.0
sbs(I00
S'contains_how'
p97
tp98
g0
(g12
g2
Ntp99
Rp100
(dp101
g16
F0.5
sg17
I205
sg18
g19
((dp102
I00
I205
stp103
Rp104
sg23
I2
sg24
F206.0
sbs(I00
S'contains_where'
p105
tp106
g0
(g12
g2
Ntp107
Rp108
(dp109
g16
F0.5
sg17
I205
sg18
g19
((dp110
I00
I204
sI01
I1
stp111
Rp112
sg23
I2
sg24
F206.0
sbssS'_label_probdist'
p113
g0
(g12
g2
Ntp114
Rp115
(dp116
g16
F0.5
sg17
I955
sg18
g19
((dp117
I00
I205
sI01
I750
stp118
Rp119
sg23
I2
sg24
F956.0
sbsbF0.8025078369905956
tp120
.