(ccopy_reg
_reconstructor
p0
(cnltk.classify.naivebayes
NaiveBayesClassifier
p1
c__builtin__
object
p2
Ntp3
Rp4
(dp5
S'_labels'
p6
(lp7
I00
aI01
asS'_feature_probdist'
p8
(dp9
(I01
S'IN_>=_20'
p10
tp11
g0
(cnltk.probability
ELEProbDist
p12
g2
Ntp13
Rp14
(dp15
S'_gamma'
p16
F0.5
sS'_N'
p17
I2196
sS'_freqdist'
p18
cnltk.probability
FreqDist
p19
((dp20
I00
I1446
sI01
I750
stp21
Rp22
sS'_bins'
p23
I2
sS'_divisor'
p24
F2197.0
sbs(I00
S'JJ_5_to_30'
p25
tp26
g0
(g12
g2
Ntp27
Rp28
(dp29
g16
F0.5
sg17
I1675
sg18
g19
((dp30
I00
I887
sI01
I788
stp31
Rp32
sg23
I2
sg24
F1676.0
sbs(I00
S'the'
p33
tp34
g0
(g12
g2
Ntp35
Rp36
(dp37
g16
F0.5
sg17
I1675
sg18
g19
((dp38
I0
I1675
stp39
Rp40
sg23
I1
sg24
F1675.5
sbs(I01
S'JJ_40_to_90'
p41
tp42
g0
(g12
g2
Ntp43
Rp44
(dp45
g16
F0.5
sg17
I2196
sg18
g19
((dp46
I00
I2117
sI01
I79
stp47
Rp48
sg23
I2
sg24
F2197.0
sbs(I00
S'PRP_5_to_18'
p49
tp50
g0
(g12
g2
Ntp51
Rp52
(dp53
g16
F0.5
sg17
I1675
sg18
g19
((dp54
I00
I1281
sI01
I394
stp55
Rp56
sg23
I2
sg24
F1676.0
sbs(I00
S'NNS_>=_90'
p57
tp58
g0
(g12
g2
Ntp59
Rp60
(dp61
g16
F0.5
sg17
I1675
sg18
g19
((dp62
I00
I1658
sI01
I17
stp63
Rp64
sg23
I2
sg24
F1676.0
sbs(I00
S'DT_40_to_50'
p65
tp66
g0
(g12
g2
Ntp67
Rp68
(dp69
g16
F0.5
sg17
I1675
sg18
g19
((dp70
I00
I1653
sI01
I22
stp71
Rp72
sg23
I2
sg24
F1676.0
sbs(I00
S'VBD_>=_32'
p73
tp74
g0
(g12
g2
Ntp75
Rp76
(dp77
g16
F0.5
sg17
I1675
sg18
g19
((dp78
I00
I1667
sI01
I8
stp79
Rp80
sg23
I2
sg24
F1676.0
sbs(I01
S'this'
p81
tp82
g0
(g12
g2
Ntp83
Rp84
(dp85
g16
F0.5
sg17
I2196
sg18
g19
((dp86
I0
I2196
stp87
Rp88
sg23
I1
sg24
F2196.5
sbs(I00
S'is'
p89
tp90
g0
(g12
g2
Ntp91
Rp92
(dp93
g16
F0.5
sg17
I1675
sg18
g19
((dp94
I0
I1675
stp95
Rp96
sg23
I1
sg24
F1675.5
sbs(I01
S'JJ_30_to_40'
p97
tp98
g0
(g12
g2
Ntp99
Rp100
(dp101
g16
F0.5
sg17
I2196
sg18
g19
((dp102
I00
I2083
sI01
I113
stp103
Rp104
sg23
I2
sg24
F2197.0
sbs(I00
S'RB_>=_18'
p105
tp106
g0
(g12
g2
Ntp107
Rp108
(dp109
g16
F0.5
sg17
I1675
sg18
g19
((dp110
I00
I1346
sI01
I329
stp111
Rp112
sg23
I2
sg24
F1676.0
sbs(I01
S'JJ_5_to_30'
p113
tp114
g0
(g12
g2
Ntp115
Rp116
(dp117
g16
F0.5
sg17
I2196
sg18
g19
((dp118
I00
I1299
sI01
I897
stp119
Rp120
sg23
I2
sg24
F2197.0
sbs(I00
S'I'
p121
tp122
g0
(g12
g2
Ntp123
Rp124
(dp125
g16
F0.5
sg17
I1675
sg18
g19
((dp126
I0
I1675
stp127
Rp128
sg23
I1
sg24
F1675.5
sbs(I01
S'he'
p129
tp130
g0
(g12
g2
Ntp131
Rp132
(dp133
g16
F0.5
sg17
I2196
sg18
g19
((dp134
I0
I2196
stp135
Rp136
sg23
I1
sg24
F2196.5
sbs(I01
S'VBD_<_5'
p137
tp138
g0
(g12
g2
Ntp139
Rp140
(dp141
g16
F0.5
sg17
I2196
sg18
g19
((dp142
I00
I416
sI01
I1780
stp143
Rp144
sg23
I2
sg24
F2197.0
sbs(I01
S'NNS_>=_90'
p145
tp146
g0
(g12
g2
Ntp147
Rp148
(dp149
g16
F0.5
sg17
I2196
sg18
g19
((dp150
I00
I2172
sI01
I24
stp151
Rp152
sg23
I2
sg24
F2197.0
sbs(I00
S'PRP_<_5'
p153
tp154
g0
(g12
g2
Ntp155
Rp156
(dp157
g16
F0.5
sg17
I1675
sg18
g19
((dp158
I00
I730
sI01
I945
stp159
Rp160
sg23
I2
sg24
F1676.0
sbs(I01
S'RB_>=_18'
p161
tp162
g0
(g12
g2
Ntp163
Rp164
(dp165
g16
F0.5
sg17
I2196
sg18
g19
((dp166
I00
I1781
sI01
I415
stp167
Rp168
sg23
I2
sg24
F2197.0
sbs(I01
S'DT_40_to_50'
p169
tp170
g0
(g12
g2
Ntp171
Rp172
(dp173
g16
F0.5
sg17
I2196
sg18
g19
((dp174
I00
I2171
sI01
I25
stp175
Rp176
sg23
I2
sg24
F2197.0
sbs(I01
S'do'
p177
tp178
g0
(g12
g2
Ntp179
Rp180
(dp181
g16
F0.5
sg17
I2196
sg18
g19
((dp182
I0
I2196
stp183
Rp184
sg23
I1
sg24
F2196.5
sbs(I01
g33
tp185
g0
(g12
g2
Ntp186
Rp187
(dp188
g16
F0.5
sg17
I2196
sg18
g19
((dp189
I0
I2196
stp190
Rp191
sg23
I1
sg24
F2196.5
sbs(I01
S'DT_>=_60'
p192
tp193
g0
(g12
g2
Ntp194
Rp195
(dp196
g16
F0.5
sg17
I2196
sg18
g19
((dp197
I00
I2188
sI01
I8
stp198
Rp199
sg23
I2
sg24
F2197.0
sbs(I00
S'NN_5_to_25'
p200
tp201
g0
(g12
g2
Ntp202
Rp203
(dp204
g16
F0.5
sg17
I1675
sg18
g19
((dp205
I00
I1176
sI01
I499
stp206
Rp207
sg23
I2
sg24
F1676.0
sbs(I00
S'JJ_>=_90'
p208
tp209
g0
(g12
g2
Ntp210
Rp211
(dp212
g16
F0.5
sg17
I1675
sg18
g19
((dp213
I00
I1668
sI01
I7
stp214
Rp215
sg23
I2
sg24
F1676.0
sbs(I01
S'IN_<_5'
p216
tp217
g0
(g12
g2
Ntp218
Rp219
(dp220
g16
F0.5
sg17
I2196
sg18
g19
((dp221
I00
I1298
sI01
I898
stp222
Rp223
sg23
I2
sg24
F2197.0
sbs(I00
S'DT_50_to_60'
p224
tp225
g0
(g12
g2
Ntp226
Rp227
(dp228
g16
F0.5
sg17
I1675
sg18
g19
((dp229
I00
I1658
sI01
I17
stp230
Rp231
sg23
I2
sg24
F1676.0
sbs(I01
g121
tp232
g0
(g12
g2
Ntp233
Rp234
(dp235
g16
F0.5
sg17
I2196
sg18
g19
((dp236
I0
I2196
stp237
Rp238
sg23
I1
sg24
F2196.5
sbs(I01
S'RB_<_5'
p239
tp240
g0
(g12
g2
Ntp241
Rp242
(dp243
g16
F0.5
sg17
I2196
sg18
g19
((dp244
I00
I878
sI01
I1318
stp245
Rp246
sg23
I2
sg24
F2197.0
sbs(I01
S'RB_5_to_18'
p247
tp248
g0
(g12
g2
Ntp249
Rp250
(dp251
g16
F0.5
sg17
I2196
sg18
g19
((dp252
I00
I1733
sI01
I463
stp253
Rp254
sg23
I2
sg24
F2197.0
sbs(I00
g129
tp255
g0
(g12
g2
Ntp256
Rp257
(dp258
g16
F0.5
sg17
I1675
sg18
g19
((dp259
I0
I1675
stp260
Rp261
sg23
I1
sg24
F1675.5
sbs(I00
S'VBD_<_5'
p262
tp263
g0
(g12
g2
Ntp264
Rp265
(dp266
g16
F0.5
sg17
I1675
sg18
g19
((dp267
I00
I224
sI01
I1451
stp268
Rp269
sg23
I2
sg24
F1676.0
sbs(I01
g89
tp270
g0
(g12
g2
Ntp271
Rp272
(dp273
g16
F0.5
sg17
I2196
sg18
g19
((dp274
I0
I2196
stp275
Rp276
sg23
I1
sg24
F2196.5
sbs(I01
S'or'
p277
tp278
g0
(g12
g2
Ntp279
Rp280
(dp281
g16
F0.5
sg17
I2196
sg18
g19
((dp282
I0
I2196
stp283
Rp284
sg23
I1
sg24
F2196.5
sbs(I00
S'IN_>=_20'
p285
tp286
g0
(g12
g2
Ntp287
Rp288
(dp289
g16
F0.5
sg17
I1675
sg18
g19
((dp290
I00
I1026
sI01
I649
stp291
Rp292
sg23
I2
sg24
F1676.0
sbs(I01
S'NNS_<_5'
p293
tp294
g0
(g12
g2
Ntp295
Rp296
(dp297
g16
F0.5
sg17
I2196
sg18
g19
((dp298
I00
I828
sI01
I1368
stp299
Rp300
sg23
I2
sg24
F2197.0
sbs(I00
S'NN_>=_90'
p301
tp302
g0
(g12
g2
Ntp303
Rp304
(dp305
g16
F0.5
sg17
I1675
sg18
g19
((dp306
I00
I1646
sI01
I29
stp307
Rp308
sg23
I2
sg24
F1676.0
sbs(I00
g177
tp309
g0
(g12
g2
Ntp310
Rp311
(dp312
g16
F0.5
sg17
I1675
sg18
g19
((dp313
I0
I1675
stp314
Rp315
sg23
I1
sg24
F1675.5
sbs(I00
S'she'
p316
tp317
g0
(g12
g2
Ntp318
Rp319
(dp320
g16
F0.5
sg17
I1675
sg18
g19
((dp321
I0
I1675
stp322
Rp323
sg23
I1
sg24
F1675.5
sbs(I00
S'IN_5_to_20'
p324
tp325
g0
(g12
g2
Ntp326
Rp327
(dp328
g16
F0.5
sg17
I1675
sg18
g19
((dp329
I00
I1138
sI01
I537
stp330
Rp331
sg23
I2
sg24
F1676.0
sbs(I01
S'JJ_>=_90'
p332
tp333
g0
(g12
g2
Ntp334
Rp335
(dp336
g16
F0.5
sg17
I2196
sg18
g19
((dp337
I00
I2187
sI01
I9
stp338
Rp339
sg23
I2
sg24
F2197.0
sbs(I01
g316
tp340
g0
(g12
g2
Ntp341
Rp342
(dp343
g16
F0.5
sg17
I2196
sg18
g19
((dp344
I0
I2196
stp345
Rp346
sg23
I1
sg24
F2196.5
sbs(I01
S'count_quest_keyword'
p347
tp348
g0
(g12
g2
Ntp349
Rp350
(dp351
g16
F0.5
sg17
I2196
sg18
g19
((dp352
I0
I1794
sI1
I353
sI2
I45
sI3
I4
stp353
Rp354
sg23
I4
sg24
F2198.0
sbs(I00
S'RB_<_5'
p355
tp356
g0
(g12
g2
Ntp357
Rp358
(dp359
g16
F0.5
sg17
I1675
sg18
g19
((dp360
I00
I827
sI01
I848
stp361
Rp362
sg23
I2
sg24
F1676.0
sbs(I00
S'DT_>=_60'
p363
tp364
g0
(g12
g2
Ntp365
Rp366
(dp367
g16
F0.5
sg17
I1675
sg18
g19
((dp368
I00
I1671
sI01
I4
stp369
Rp370
sg23
I2
sg24
F1676.0
sbs(I00
S'IN_<_5'
p371
tp372
g0
(g12
g2
Ntp373
Rp374
(dp375
g16
F0.5
sg17
I1675
sg18
g19
((dp376
I00
I1186
sI01
I489
stp377
Rp378
sg23
I2
sg24
F1676.0
sbs(I01
S'NN_5_to_25'
p379
tp380
g0
(g12
g2
Ntp381
Rp382
(dp383
g16
F0.5
sg17
I2196
sg18
g19
((dp384
I00
I1733
sI01
I463
stp385
Rp386
sg23
I2
sg24
F2197.0
sbs(I01
S'NNS_5_to_20'
p387
tp388
g0
(g12
g2
Ntp389
Rp390
(dp391
g16
F0.5
sg17
I2196
sg18
g19
((dp392
I00
I1747
sI01
I449
stp393
Rp394
sg23
I2
sg24
F2197.0
sbs(I01
S'NN_25_to_40'
p395
tp396
g0
(g12
g2
Ntp397
Rp398
(dp399
g16
F0.5
sg17
I2196
sg18
g19
((dp400
I00
I1612
sI01
I584
stp401
Rp402
sg23
I2
sg24
F2197.0
sbs(I01
S'PRP_>=_18'
p403
tp404
g0
(g12
g2
Ntp405
Rp406
(dp407
g16
F0.5
sg17
I2196
sg18
g19
((dp408
I00
I1729
sI01
I467
stp409
Rp410
sg23
I2
sg24
F2197.0
sbs(I01
S'DT_50_to_60'
p411
tp412
g0
(g12
g2
Ntp413
Rp414
(dp415
g16
F0.5
sg17
I2196
sg18
g19
((dp416
I00
I2156
sI01
I40
stp417
Rp418
sg23
I2
sg24
F2197.0
sbs(I01
S'NNS_50_to_90'
p419
tp420
g0
(g12
g2
Ntp421
Rp422
(dp423
g16
F0.5
sg17
I2196
sg18
g19
((dp424
I00
I2144
sI01
I52
stp425
Rp426
sg23
I2
sg24
F2197.0
sbs(I01
S'NN_>=_90'
p427
tp428
g0
(g12
g2
Ntp429
Rp430
(dp431
g16
F0.5
sg17
I2196
sg18
g19
((dp432
I00
I2079
sI01
I117
stp433
Rp434
sg23
I2
sg24
F2197.0
sbs(I00
S'NNS_20_to_50'
p435
tp436
g0
(g12
g2
Ntp437
Rp438
(dp439
g16
F0.5
sg17
I1675
sg18
g19
((dp440
I00
I1347
sI01
I328
stp441
Rp442
sg23
I2
sg24
F1676.0
sbs(I01
S'JJ_<_5'
p443
tp444
g0
(g12
g2
Ntp445
Rp446
(dp447
g16
F0.5
sg17
I2196
sg18
g19
((dp448
I00
I1098
sI01
I1098
stp449
Rp450
sg23
I2
sg24
F2197.0
sbs(I01
S'DT_<_40'
p451
tp452
g0
(g12
g2
Ntp453
Rp454
(dp455
g16
F0.5
sg17
I2196
sg18
g19
((dp456
I00
I73
sI01
I2123
stp457
Rp458
sg23
I2
sg24
F2197.0
sbs(I00
g277
tp459
g0
(g12
g2
Ntp460
Rp461
(dp462
g16
F0.5
sg17
I1675
sg18
g19
((dp463
I0
I1675
stp464
Rp465
sg23
I1
sg24
F1675.5
sbs(I00
S'VBD_5_to_32'
p466
tp467
g0
(g12
g2
Ntp468
Rp469
(dp470
g16
F0.5
sg17
I1675
sg18
g19
((dp471
I00
I1459
sI01
I216
stp472
Rp473
sg23
I2
sg24
F1676.0
sbs(I00
S'NN_40_to_90'
p474
tp475
g0
(g12
g2
Ntp476
Rp477
(dp478
g16
F0.5
sg17
I1675
sg18
g19
((dp479
I00
I1361
sI01
I314
stp480
Rp481
sg23
I2
sg24
F1676.0
sbs(I00
S'NNS_<_5'
p482
tp483
g0
(g12
g2
Ntp484
Rp485
(dp486
g16
F0.5
sg17
I1675
sg18
g19
((dp487
I00
I868
sI01
I807
stp488
Rp489
sg23
I2
sg24
F1676.0
sbs(I01
S'NN_<_5'
p490
tp491
g0
(g12
g2
Ntp492
Rp493
(dp494
g16
F0.5
sg17
I2196
sg18
g19
((dp495
I00
I1791
sI01
I405
stp496
Rp497
sg23
I2
sg24
F2197.0
sbs(I00
S'DT_<_40'
p498
tp499
g0
(g12
g2
Ntp500
Rp501
(dp502
g16
F0.5
sg17
I1675
sg18
g19
((dp503
I00
I43
sI01
I1632
stp504
Rp505
sg23
I2
sg24
F1676.0
sbs(I00
S'RB_5_to_18'
p506
tp507
g0
(g12
g2
Ntp508
Rp509
(dp510
g16
F0.5
sg17
I1675
sg18
g19
((dp511
I00
I1177
sI01
I498
stp512
Rp513
sg23
I2
sg24
F1676.0
sbs(I01
S'IN_5_to_20'
p514
tp515
g0
(g12
g2
Ntp516
Rp517
(dp518
g16
F0.5
sg17
I2196
sg18
g19
((dp519
I00
I1648
sI01
I548
stp520
Rp521
sg23
I2
sg24
F2197.0
sbs(I01
S'PRP_5_to_18'
p522
tp523
g0
(g12
g2
Ntp524
Rp525
(dp526
g16
F0.5
sg17
I2196
sg18
g19
((dp527
I00
I1768
sI01
I428
stp528
Rp529
sg23
I2
sg24
F2197.0
sbs(I00
S'PRP_>=_18'
p530
tp531
g0
(g12
g2
Ntp532
Rp533
(dp534
g16
F0.5
sg17
I1675
sg18
g19
((dp535
I00
I1339
sI01
I336
stp536
Rp537
sg23
I2
sg24
F1676.0
sbs(I00
g347
tp538
g0
(g12
g2
Ntp539
Rp540
(dp541
g16
F0.5
sg17
I1675
sg18
g19
((dp542
I0
I1425
sI1
I236
sI2
I14
stp543
Rp544
sg23
I4
sg24
F1677.0
sbs(I00
S'NN_25_to_40'
p545
tp546
g0
(g12
g2
Ntp547
Rp548
(dp549
g16
F0.5
sg17
I1675
sg18
g19
((dp550
I00
I1156
sI01
I519
stp551
Rp552
sg23
I2
sg24
F1676.0
sbs(I01
S'NNS_20_to_50'
p553
tp554
g0
(g12
g2
Ntp555
Rp556
(dp557
g16
F0.5
sg17
I2196
sg18
g19
((dp558
I00
I1893
sI01
I303
stp559
Rp560
sg23
I2
sg24
F2197.0
sbs(I00
S'JJ_40_to_90'
p561
tp562
g0
(g12
g2
Ntp563
Rp564
(dp565
g16
F0.5
sg17
I1675
sg18
g19
((dp566
I00
I1628
sI01
I47
stp567
Rp568
sg23
I2
sg24
F1676.0
sbs(I01
S'PRP_<_5'
p569
tp570
g0
(g12
g2
Ntp571
Rp572
(dp573
g16
F0.5
sg17
I2196
sg18
g19
((dp574
I00
I895
sI01
I1301
stp575
Rp576
sg23
I2
sg24
F2197.0
sbs(I01
S'VBD_5_to_32'
p577
tp578
g0
(g12
g2
Ntp579
Rp580
(dp581
g16
F0.5
sg17
I2196
sg18
g19
((dp582
I00
I1811
sI01
I385
stp583
Rp584
sg23
I2
sg24
F2197.0
sbs(I00
S'NNS_5_to_20'
p585
tp586
g0
(g12
g2
Ntp587
Rp588
(dp589
g16
F0.5
sg17
I1675
sg18
g19
((dp590
I00
I1196
sI01
I479
stp591
Rp592
sg23
I2
sg24
F1676.0
sbs(I00
S'JJ_30_to_40'
p593
tp594
g0
(g12
g2
Ntp595
Rp596
(dp597
g16
F0.5
sg17
I1675
sg18
g19
((dp598
I00
I1593
sI01
I82
stp599
Rp600
sg23
I2
sg24
F1676.0
sbs(I01
S'NN_40_to_90'
p601
tp602
g0
(g12
g2
Ntp603
Rp604
(dp605
g16
F0.5
sg17
I2196
sg18
g19
((dp606
I00
I1569
sI01
I627
stp607
Rp608
sg23
I2
sg24
F2197.0
sbs(I00
S'NNS_50_to_90'
p609
tp610
g0
(g12
g2
Ntp611
Rp612
(dp613
g16
F0.5
sg17
I1675
sg18
g19
((dp614
I00
I1631
sI01
I44
stp615
Rp616
sg23
I2
sg24
F1676.0
sbs(I00
S'JJ_<_5'
p617
tp618
g0
(g12
g2
Ntp619
Rp620
(dp621
g16
F0.5
sg17
I1675
sg18
g19
((dp622
I00
I924
sI01
I751
stp623
Rp624
sg23
I2
sg24
F1676.0
sbs(I00
S'NN_<_5'
p625
tp626
g0
(g12
g2
Ntp627
Rp628
(dp629
g16
F0.5
sg17
I1675
sg18
g19
((dp630
I00
I1361
sI01
I314
stp631
Rp632
sg23
I2
sg24
F1676.0
sbs(I00
g81
tp633
g0
(g12
g2
Ntp634
Rp635
(dp636
g16
F0.5
sg17
I1675
sg18
g19
((dp637
I0
I1675
stp638
Rp639
sg23
I1
sg24
F1675.5
sbs(I00
S'if'
p640
tp641
g0
(g12
g2
Ntp642
Rp643
(dp644
g16
F0.5
sg17
I1675
sg18
g19
((dp645
I0
I1675
stp646
Rp647
sg23
I1
sg24
F1675.5
sbs(I01
g640
tp648
g0
(g12
g2
Ntp649
Rp650
(dp651
g16
F0.5
sg17
I2196
sg18
g19
((dp652
I0
I2196
stp653
Rp654
sg23
I1
sg24
F2196.5
sbs(I01
S'VBD_>=_32'
p655
tp656
g0
(g12
g2
Ntp657
Rp658
(dp659
g16
F0.5
sg17
I2196
sg18
g19
((dp660
I00
I2165
sI01
I31
stp661
Rp662
sg23
I2
sg24
F2197.0
sbssS'_label_probdist'
p663
g0
(g12
g2
Ntp664
Rp665
(dp666
g16
F0.5
sg17
I3871
sg18
g19
((dp667
I00
I1675
sI01
I2196
stp668
Rp669
sg23
I2
sg24
F3872.0
sbsbF0.6096049573973664
tp670
.