c__builtin__
set
p0
((lp1
Vroot_dev_0
p2
aVjoncbirder
p3
aVfoui
p4
aVfoul
p5
aVderp
p6
aVsleep
p7
aVasian
p8
aVhanging
p9
aVgia_carbajal
p10
aVhate
p11
aVrelationships
p12
aVvile
p13
aVpoco
p14
aVtweet
p15
aVpoorest
p16
aVyibyulyi
p17
aVpresents
p18
aVvoted
p19
aVlord
p20
aVsorry
p21
aVworth
p22
aVcruising
p23
aVgoogleplay
p24
aVuofl
p25
aVregional
p26
aVdespise
p27
aVsmack
p28
aVbegadang
p29
aVevery
p30
aVjack
p31
aVvoit
p32
aVthehill
p33
aVbringing
p34
aV'skateboard
p35
aVtrainwrecker
p36
aVtickets
p37
aVschool
p38
aVmauvais
p39
aVwednesday
p40
aVrblifeisgood
p41
aVvector
p42
aVmath
p43
aVoooh
p44
aValarm
p45
aVupp
p46
aVforce
p47
aVmiller
p48
aVdanneel
p49
aVguidelines
p50
aVdirect
p51
aVsecond
p52
aVstreet
p53
aVhunterc_59
p54
aVunambi
p55
aVimpersonating
p56
aVblue
p57
aVbrexit
p58
aVde'aaron
p59
aVit.tell
p60
aVdeliberate
p61
aV3.34
p62
aVlights
p63
aVvaivu
p64
aVtoll
p65
aVnew
p66
aVever
p67
aVtold
p68
aVnever
p69
aVjustdoit_swoosh
p70
aVreported
p71
aVchina
p72
aVpath
p73
aVcelebration
p74
aVstresses
p75
aVkids
p76
aVdaughter
p77
aVstudy
p78
aVeurobriefing
p79
aVaku
p80
aVcredit
p81
aVjogging
p82
aVstressed
p83
aVcfbheather
p84
aVsoggysadboi
p85
aVstink
p86
aV..just
p87
aVlonzo
p88
aVbro
p89
aVmoral
p90
aVhangoutfest
p91
aVpunching
p92
aVtotal
p93
aVsarah
p94
aVplot
p95
aVmarketers
p96
aVwould
p97
aVromney
p98
aV8-ball
p99
aVfrankie_morgan1
p100
aVcall
p101
aVcalm
p102
aVuhmmm
p103
aVinner
p104
aVsexy
p105
aV23-9
p106
aVtype
p107
aVtell
p108
aVmystical
p109
aVfemales
p110
aVposting
p111
aVlungs
p112
aVbrings
p113
aVodell
p114
aVhaha
p115
aVcheckerchairs
p116
aVhurt
p117
aV99
p118
aVphone
p119
aVchampionships
p120
aV10:49pm
p121
aV5.14
p122
aVemeritus
p123
aV90
p124
aVsortir
p125
aVoutdated
p126
aVtd
p127
aVmust
p128
aVmorally
p129
aVlocked
p130
aVroom
p131
aVrights
p132
aVwork
p133
aVmi
p134
aVnappy
p135
aVmt
p136
aV.ohhhh
p137
aVtinder
p138
aVmr
p139
aVdyingregime
p140
aVgive
p141
aVtrackie
p142
aVlaughs
p143
aVhoney
p144
aV8.36
p145
aVreviewing
p146
aVwant
p147
aVdrive
p148
aVstory
p149
aVunforgettable
p150
aVhoe
p151
aVend
p152
aVrecovery
p153
aVchilly
p154
aVprovide
p155
aVsitting
p156
aVphonecall
p157
aVhov
p158
aVhot
p159
aVplayback
p160
aVaching
p161
aVanswer
p162
aVgate
p163
aVchase
p164
aVfudge
p165
aVcornrows
p166
aVsquawkstreet
p167
aVbeauty
p168
aVhoustontopguns
p169
aVjalen
p170
aVmanicured
p171
aVloyalty
p172
aVwrong
p173
aVswapfellalphys
p174
aVlooked
p175
aVpresident
p176
aVlaw
p177
aVmeaningful
p178
aVlas
p179
aVhypothermal
p180
aVdanny
p181
aVattempt
p182
aVamid
p183
aVheadquarters
p184
aVgreek
p185
aVcomplexity
p186
aVjungle
p187
aVambulance
p188
aVworst
p189
aVdemocratic
p190
aVgnstig
p191
aVorder
p192
aVwine
p193
aVfifa
p194
aVblind
p195
aVthe-
p196
aVoffice
p197
aVdreamed
p198
aVfam
p199
aVimfao
p200
aVbawnsai
p201
aVgusyanez72
p202
aVnsfw
p203
aVresponsive
p204
aVmayor
p205
aVima
p206
aVsomewhere
p207
aVhighlights
p208
aVfix
p209
aVdenver
p210
aVvente
p211
aVbetter
p212
aVcorpvngas
p213
aVswarthy
p214
aVcompelling
p215
aVcondition
p216
aVpennie
p217
aVgassin
p218
aVcoffee
p219
aVwidely
p220
aVbans
p221
aVworkout
p222
aVlox
p223
aV.thomas
p224
aVbreak
p225
aV5dec,9:00pm
p226
aVbrasileira
p227
aVschools
p228
aV38-6
p229
aVsilver
p230
aVbank
p231
aVgrammar
p232
aVpatrz
p233
aV2319
p234
aVda..
p235
aVarrow
p236
aVwent
p237
aVnooooooooooo
p238
aVneilfrick
p239
aVbone
p240
aVmean
p241
aVfinancial
p242
aVdr.sahab
p243
aVlaying
p244
aV.and
p245
aVcelebrating
p246
aVmilan
p247
aVdawg
p248
aVnaticsnrs_
p249
aVjours
p250
aVforgot
p251
aVlogo
p252
aVdawn
p253
aVmessage
p254
aVfezfoxdown
p255
aVgon
p256
aVnetwork
p257
aVdriving
p258
aVgod
p259
aVannnnnnnnd
p260
aVtomorrow
p261
aVrd
p262
aVfenero
p263
aVnikerunning
p264
aVbanning
p265
aVgot
p266
aVgov
p267
aVbraine-le-comte
p268
aVmerchandising
p269
aVwritten
p270
aVnts
p271
aVthreatened
p272
aVlittle
p273
aVfree
p274
aVstandard
p275
aVevil
p276
aVentrar
p277
aVdodger
p278
aVexposing
p279
aV2272
p280
aVstarts
p281
aVjoshgrabelle
p282
aVdays
p283
aVoutfits
p284
aVheck
p285
aVdodgeball
p286
aValready
p287
aVfeatures
p288
aVunfollowed
p289
aVgrade
p290
aVharus
p291
aVencouraging
p292
aVmatteorenzi
p293
aVanother
p294
aVattackerman
p295
aVsexuelle
p296
aVdcadent
p297
aVolds
p298
aVtop
p299
aVgirls
p300
aVtot
p301
aVneeded
p302
aVton
p303
aVtune
p304
aVtom
p305
aVwiegand
p306
aVlegs
p307
aVdogs
p308
aVlisten
p309
aV5-11
p310
aVceiling
p311
aVhangout
p312
aVchronic-what-nules
p313
aV174.95
p314
aVamaricooper9
p315
aVjapanese-y
p316
aVbringin
p317
aVtolkienfan
p318
aVbegins
p319
aVdistance
p320
aVanxiety
p321
aVsharia/jihad
p322
aVrate
p323
aVnations
p324
aVpreparation
p325
aVmatter
p326
aVsilly
p327
aVfriend
p328
aViron
p329
aVfeeling
p330
aValexandreveela
p331
aVbridge
p332
aVarealdreemurr
p333
aVrae
p334
aVsees
p335
aVran
p336
aVportraits
p337
aVmind
p338
aVmine
p339
aVginger
p340
aV1604
p341
aVtalking
p342
aVlbc
p343
aVseed
p344
aVleafs
p345
aVseen
p346
aVseem
p347
aVmins
p348
aV810borderpatrol
p349
aVtells
p350
aVray
p351
aVconcrete
p352
aVcryinggggggg
p353
aVsarahjolney1
p354
aVkevin_nxi
p355
aVquarterback
p356
aVeven
p357
aVnobody
p358
aVthough
p359
aVchelseaperetti
p360
aVrappers
p361
aVmouth
p362
aVplenty
p363
aVconceded
p364
aVoffclastro
p365
aVscoop208
p366
aVjmac_ai
p367
aVzealand
p368
aVepisode
p369
aVprofessor
p370
aV_queenchara_
p371
aVdog
p372
aVslappedham
p373
aVleaflet
p374
aVyang
p375
aVelliem72
p376
aVyessirrrrr
p377
aVcame
p378
aVmarvel
p379
aVsaying
p380
aVpope
p381
aVthinkco
p382
aVrandom
p383
aVpennysfaith
p384
aVcaffeine
p385
aVdr.farooq
p386
aVradio
p387
aVmake
p388
aVtoast
p389
aVjudges
p390
aVaschmugge
p391
aVrunday
p392
aVguidance
p393
aVminnesota
p394
aVhrs
p395
aVblanking
p396
aVfolks
p397
aVannounce
p398
aVpopulation
p399
aV'no
p400
aVpersonality
p401
aVgeez
p402
aV4.04
p403
aVdm
p404
aV4.00
p405
aV10
p406
aVde
p407
aVstop
p408
aVdc
p409
aVwhitespaceninja
p410
aVahahaha
p411
aVtunningfork
p412
aVwatson
p413
aVdz
p414
aVallahabad
p415
aVdespite
p416
aVdu
p417
aVbotanical
p418
aVhall
p419
aVbat
p420
aVwitte
p421
aVcovering
p422
aVofficially
p423
aVguns
p424
aVbag
p425
aVbad
p426
aVbae
p427
aVztodd
p428
aV412
p429
aVboring
p430
aVivmayrgco
p431
aVexplanations
p432
aVbah
p433
aVsecretary
p434
aVrespond
p435
aVpillhead
p436
aVdecides
p437
aVkemeny-young
p438
aVswept
p439
aVhabit
p440
aVw/
p441
aVbranding
p442
aVtesting
p443
aVnun
p444
aVantifreeze
p445
aVresult
p446
aVnue
p447
aVtorching
p448
aVbest
p449
aVsaid
p450
aVinappropriate
p451
aVrare
p452
aVaway
p453
aVextol
p454
aVxvi
p455
aVmud
p456
aVbien
p457
aVfuture
p458
aVberarti
p459
aV7.80
p460
aVmen
p461
aVomg
p462
aVempezamos
p463
aVnature
p464
aVwo
p465
aVbuckeyes
p466
aVweak
p467
aV'bama-
p468
aVsouvenir
p469
aVnikefootball
p470
aVadd
p471
aVws
p472
aVwr
p473
aVwtf
p474
aVnews
p475
aVpicking
p476
aVelecting
p477
aVyohirdysr
p478
aVnikefuel
p479
aVtriggers
p480
aVcountry
p481
aVheating
p482
aVgames
p483
aVmisunderstand
p484
aVreceiver
p485
aVernst
p486
aVlogin
p487
aVargue
p488
aVcom
p489
aVasked
p490
aVbram
p491
aVily
p492
aV30th
p493
aVwinnin
p494
aVi.d
p495
aVlick
p496
aVvais
p497
aVtiana
p498
aVyday
p499
aVspeak
p500
aVcode
p501
aVproceeded
p502
aVasks
p503
aVthree
p504
aVquickly
p505
aVbeer
p506
aVmuch
p507
aVelizabethaneale
p508
aVbasic
p509
aV26.20
p510
aVnikewomen
p511
aVlife
p512
aV5k
p513
aV/waitwhat
p514
aVnttdatainc
p515
aVsearch
p516
aVdave
p517
aVcraft
p518
aVpocketknives
p519
aVcatch
p520
aVapplied
p521
aVheatstreet
p522
aV.__
p523
aVlaht
p524
aVreapers
p525
aVlauradravland
p526
aVcruztaiz
p527
aVcastro
p528
aVn
p529
aVugly
p530
aVnear
p531
aVleaves
p532
aVaid
p533
aVk
p534
aVmistake
p535
aVseven
p536
aVplayed
p537
aVplayer
p538
aVcant
p539
aVim
p540
aVscurry
p541
aVbreakfast
p542
aVquand
p543
aVnike
p544
aVperform
p545
aVoccupied
p546
aVrealizing
p547
aVclearly
p548
aVdemocracies
p549
aVbottled
p550
aVtuxboard
p551
aVa+bc
p552
aVeburr_sf
p553
aVum..i
p554
aVeuropean
p555
aVpick
p556
aVhang
p557
aVrain
p558
aVhand
p559
aVsupper
p560
aVthoughts
p561
aVkid
p562
aVtherealjrsmith
p563
aVdylan
p564
aVkept
p565
aVthy
p566
aVthx
p567
aVleenavand
p568
aVtho
p569
aVmaterials
p570
aVmother
p571
aVhearts
p572
aValabama
p573
aVhacen
p574
aVmusical
p575
aVleft
p576
aVgheyyyyyy
p577
aVmclean
p578
aVindigo
p579
aVyea
p580
aVphoto
p581
aVani_news
p582
aVaside
p583
aVthanks
p584
aVhuman
p585
aVfacts
p586
aVyep
p587
aVyes
p588
aVyet
p589
aV3-0
p590
aVculleton
p591
aVcandidate
p592
aVcornell
p593
aVease
p594
aVstrains
p595
aVsix-game
p596
aVima_justdoit
p597
aVfortran
p598
aVambalance
p599
aVteenager
p600
aVeasy
p601
aVborisjohnson
p602
aV.that
p603
aVnaplan
p604
aVhumanity
p605
aVsiegfried
p606
aVfuycsbdkdbc
p607
aVlooks
p608
aVpossible
p609
aVbirth
p610
aVperformance
p611
aVincontrovertible
p612
aVdesire
p613
aV58
p614
aVbobby
p615
aV55
p616
aVnude
p617
aVperforming
p618
aVjawwwn
p619
aV50
p620
aVtheyre
p621
aVspecific
p622
aVsteps
p623
aVnight
p624
aVmatchup
p625
aVwhomever
p626
aVwebb
p627
aVself-radicalized
p628
aVright
p629
aVold
p630
aV4.14
p631
aVcrowd
p632
aVpeople
p633
aVsuccessfully
p634
aVdead
p635
aVborn
p636
aVseanhannity
p637
aVelection
p638
aVstatistic
p639
aVdear
p640
aVmultiple
p641
aV52
p642
aVcongratulate
p643
aVmcleod
p644
aVcooper
p645
aVannika_naidoo
p646
aVicc
p647
aV161126
p648
aVopposite
p649
aVfox
p650
aVice
p651
aVtotall
p652
aVeverything
p653
aVbarehanded
p654
aVindividuals
p655
aVshakespeare
p656
aVtreadmill
p657
aVretiredfilth
p658
aVchristmas
p659
aVstalking
p660
aVpls
p661
aV.what
p662
aVthegreyking
p663
aVpose
p664
aVtherealdeznuts
p665
aVpost
p666
aVsuper
p667
aVcory
p668
aVfarve
p669
aVramsnfl
p670
aVmoscato
p671
aVpaulpesci
p672
aVmisma
p673
aV'let
p674
aVpersonajes
p675
aVnipunchopra7
p676
aVsoc
p677
aVpays
p678
aVselfie
p679
aVbeardedpiscator
p680
aVson
p681
aVthankful
p682
aVoutscored
p683
aVraises
p684
aVamsterdam
p685
aVshoots
p686
aVrounds
p687
aVunambiguous
p688
aVwan
p689
aVrely
p690
aVspongebob
p691
aVchargers
p692
aVdelos
p693
aVsupport
p694
aVt'as
p695
aVfight
p696
aVstuck
p697
aVjoseph
p698
aVway
p699
aVmusic
p700
aVhappy
p701
aVhead
p702
aV22*
p703
aVoffer
p704
aVattempted
p705
aVlanding
p706
aVcafedotcom
p707
aVfailure
p708
aVheat
p709
aVuncle
p710
aVmasato_starish
p711
aVsurrender
p712
aVtrue
p713
aVcongratulations
p714
aVveiled
p715
aVfriday
p716
aVla
p717
aVinside
p718
aVspinrilla
p719
aVhahahahahaha
p720
aVreform
p721
aVdaddy
p722
aVprayed
p723
aVmidgets
p724
aVgather
p725
aVhotter
p726
aVmoore
p727
aVclassic
p728
aVabstract
p729
aV2234
p730
aV''
p731
aVanti-national
p732
aVproves
p733
aVlatimes
p734
aVpromised
p735
aVcheck
p736
aVshit
p737
aVphysical
p738
aVni
p739
aVwrite
p740
aVus
p741
aVaunts
p742
aVfloor
p743
aVna
p744
aVcommercials
p745
aVvisto
p746
aVne
p747
aVreality
p748
aVc3sandiego
p749
aVrole
p750
aVholding
p751
aVpapers
p752
aVwarehouse
p753
aVsmell
p754
aVnv
p755
aV2500
p756
aVscored
p757
aVpicture
p758
aV's
p759
aVembodied
p760
aVdies
p761
aVfelt
p762
aVpickles..
p763
aVl'info
p764
aVmiketobinfox
p765
aVauthoritarianism
p766
aV'd
p767
aVsbtxt
p768
aVaward
p769
aV'a
p770
aV'm
p771
aVsec_enforcement
p772
aVweekend
p773
aVportends
p774
aVlonger
p775
aVassume
p776
aVpaces
p777
aVkwumbb
p778
aVdaily
p779
aVcohesion
p780
aVlotuses
p781
aVwarm
p782
aVtime
p783
aVprecedent
p784
aVstick
p785
aVprecise
p786
aVconcepts
p787
aVcincinnati
p788
aVbrow*
p789
aVreyon
p790
aVdance
p791
aVdessus
p792
aVrob
p793
aVroc
p794
aVadjective
p795
aVmanager
p796
aVmile
p797
aV26-6
p798
aVgrateful
p799
aVbattle
p800
aVsaveourcircle
p801
aVmilk
p802
aVhnxvfzkf
p803
aVidealism
p804
aVcertainly
p805
aVhold
p806
aVzone
p807
aVreligion
p808
aVfather
p809
aVpassage
p810
aVcheat
p811
aVfinally
p812
aVrhythm
p813
aVmarks
p814
aVgilmoregirls
p815
aVdivision
p816
aVimotep
p817
aVoonupyes
p818
aVadvantage
p819
aVboombox
p820
aVfrapp
p821
aVvegan
p822
aVtacos
p823
aVcnn
p824
aVvegas
p825
aVcook
p826
aVjoin
p827
aVblast
p828
aVlurksalot
p829
aVsont
p830
aVminute
p831
aVchillswim
p832
aVcar
p833
aVcooks
p834
aVimpressive
p835
aVanypony
p836
aVdig
p837
aVregistered
p838
aVbrother
p839
aVleave
p840
aVp
p841
aVsfchronicle
p842
aVrusheenarthur
p843
aVquick
p844
aVmovie
p845
aVguy
p846
aVeagles
p847
aVdis
p848
aVolympic
p849
aVplummet
p850
aVsays
p851
aVporn
p852
aVandsheriff
p853
aVsign
p854
aVhtt
p855
aVbakk
p856
aV/finally/
p857
aVpatient
p858
aVmajors
p859
aVheadset
p860
aVbarbie
p861
aVconsortium
p862
aVabdullah
p863
aVremain
p864
aVshares
p865
aVuniform
p866
aVcurrent
p867
aVltsschftd
p868
aVdecade
p869
aVgoes
p870
aVuooaaa
p871
aVhonasantino
p872
aVappeal
p873
aVsupporting
p874
aVburn
p875
aVthronesah
p876
aVguardian
p877
aVhairs
p878
aVmuslim
p879
aVfrench
p880
aVwater
p881
aV7.23
p882
aVyards
p883
aValone
p884
aValong
p885
aVteacher
p886
aVchange
p887
aVwait
p888
aVbox
p889
aVpassengers
p890
aVhbo
p891
aVbrilliant
p892
aVstep
p893
aVboi
p894
aViamjordanwoods
p895
aVusually
p896
aVweird
p897
aVhistory
p898
aVgenuinely
p899
aVwinner
p900
aVlove
p901
aVhiking
p902
aVextra
p903
aVfbx
p904
aVprefer
p905
aVpatriots
p906
aVfake
p907
aVtouchdown
p908
aVbjswholesale
p909
aVcrisis
p910
aVmarket
p911
aVeverybody
p912
aVworking
p913
aVprove
p914
aVpositive
p915
aVretweeted
p916
aVprovo
p917
aVsports
p918
aVliterallyallen
p919
aVprachett
p920
aVpret
p921
aVtoday
p922
aV``
p923
aVclub
p924
aVoregon
p925
aVsungai
p926
aVvisual
p927
aVdowning
p928
aVscratches
p929
aVspotswoode
p930
aVeffort
p931
aVsbcssbasketball
p932
aVbansal
p933
aVdemolish
p934
aVnewplatforms
p935
aVskaters
p936
aVniggas
p937
aVindescribable
p938
aVavoiding
p939
aVlumberjack
p940
aVcap
p941
aVsoul
p942
aVlondon
p943
aVreviews
p944
aVfollowing
p945
aVmaking
p946
aVtrans
p947
aVstreak
p948
aVheart
p949
aVcrazy
p950
aVmonths
p951
aVlordilord_
p952
aVtrump
p953
aVfigure
p954
aVeu/brexit
p955
aVdecember
p956
aVawesome
p957
aVdifikiran
p958
aVfuck
p959
aVrhettandlink
p960
aVheard
p961
aVallowed
p962
aVcounting
p963
aVclothing
p964
aVsagittarius
p965
aVpink
p966
aVproductive
p967
aVsavor
p968
aVmeowconvert
p969
aVwatching
p970
aV1
p971
aV12/01
p972
aVsunday
p973
aVpure
p974
aVcanadiensmtl
p975
aVnyc
p976
aVsworn
p977
aVsweatshop
p978
aVpint
p979
aVedinburgh
p980
aVproduct
p981
aVmau
p982
aVsnooki
p983
aVmay
p984
aVsnl
p985
aVspot
p986
aV4th
p987
aVonifc
p988
aVmad
p989
aVmai
p990
aVsuck
p991
aVguys
p992
aVeighth
p993
aVman
p994
aVsofort
p995
aVoutline
p996
aVsucceeded
p997
aVsr
p998
aVcomplaining
p999
aVinfidels
p1000
aVacel2016conf
p1001
aVafrican
p1002
aVvlbonilla
p1003
aVsb
p1004
aVwolves
p1005
aVpulled
p1006
aVtalk
p1007
aV/holds
p1008
aVcute
p1009
aVjoins
p1010
aVindeed
p1011
aV1.5b+
p1012
aVyears
p1013
aVhiring
p1014
aVkellyanne
p1015
aVlsu
p1016
aVanjulie
p1017
aVargued
p1018
aVcold
p1019
aVstill
p1020
aVmasato-kun
p1021
aVksl5tv
p1022
aVthreat
p1023
aVderive
p1024
aVthank
p1025
aVmais
p1026
aVdobbln
p1027
aVamazing
p1028
aVplatform
p1029
aVcoaching
p1030
aVhometown
p1031
aVpolicy
p1032
aVmail
p1033
aVmain
p1034
aVskymurnaghan
p1035
aVhappened
p1036
aVnon
p1037
aVlonely
p1038
aVthronecloth
p1039
aVviews
p1040
aVdragonsexclndr
p1041
aVnation
p1042
aVtouching
p1043
aVconquer
p1044
aVfeature
p1045
aVnov
p1046
aVppl
p1047
aVbullshit
p1048
aVhalo
p1049
aVname
p1050
aVentrepreneur
p1051
aVgr.pisze.nagle
p1052
aVdrop
p1053
aVcaitlindelia
p1054
aVnicolasajimenez
p1055
aVcareless
p1056
aVrock
p1057
aVthapateros
p1058
aVentirely
p1059
aVflipkart
p1060
aVem
p1061
aVel
p1062
aVen
p1063
aVei
p1064
aVfired
p1065
aVyeah
p1066
aVconventions
p1067
aVdwyanewade
p1068
aVcatching
p1069
aVex
p1070
aVpreaching
p1071
aVyear
p1072
aVet
p1073
aVgirl
p1074
aVmorning
p1075
aVep
p1076
aVd'ducation
p1077
aVdescription
p1078
aVcanada
p1079
aVaccomplish
p1080
aVgarrafal
p1081
aV3rd
p1082
aVspace
p1083
aVbornday
p1084
aVmahoutokoro
p1085
aVlooking
p1086
aVmess
p1087
aVseriously
p1088
aVmiles
p1089
aVblk
p1090
aVinternet
p1091
aVvzwsupport
p1092
aVmontoya
p1093
aVcorrect
p1094
aVjenjoy
p1095
aVsmalls
p1096
aVattended
p1097
aVmonster
p1098
aVlndon
p1099
aVg
p1100
aVcomplicated
p1101
aVyuri
p1102
aVbireports
p1103
aVinevitable
p1104
aVcard
p1105
aVcare
p1106
aVlanguage
p1107
aVempezando
p1108
aVyup
p1109
aVpunk
p1110
aVthing
p1111
aVthine
p1112
aVplace
p1113
aVmassive
p1114
aVconfusing.wait
p1115
aVview
p1116
aVthink
p1117
aVfirst
p1118
aVcubans
p1119
aVc'est
p1120
aVxd
p1121
aVone
p1122
aVsoaring
p1123
aVfast
p1124
aVspanish
p1125
aVvote
p1126
aVsounds
p1127
aVcustom
p1128
aVopen
p1129
aVcheesy
p1130
aVont
p1131
aVsize
p1132
aVcity
p1133
aVlooong
p1134
aVstephengethins
p1135
aVchecked
p1136
aVcaught
p1137
aVurie
p1138
aVdawns
p1139
aVplastic
p1140
aVanyone
p1141
aV2
p1142
aVwhite
p1143
aVbrees
p1144
aVbday
p1145
aVwilliams
p1146
aVgives
p1147
aVeyes
p1148
aVshawn
p1149
aVseason
p1150
aVhun
p1151
aVhuh
p1152
aVreleased
p1153
aVmems
p1154
aVbutt
p1155
aVlachy
p1156
aVboyfriend
p1157
aVwide
p1158
aV13
p1159
aV12
p1160
aV15
p1161
aVlmao
p1162
aV17
p1163
aVedition
p1164
aVdepressed
p1165
aVgywlin
p1166
aVturvetta
p1167
aVr
p1168
aVthickens
p1169
aVcards
p1170
aVpre
p1171
aVpistnazioh
p1172
aVsan
p1173
aVsam
p1174
aVann
p1175
aVconfessed
p1176
aVturned
p1177
aVsay
p1178
aVbwecht
p1179
aVsells
p1180
aVsaw
p1181
aVkevin
p1182
aV75-foot
p1183
aVfashionable
p1184
aVdorinbakedbeans
p1185
aVideas
p1186
aVshocked
p1187
aVymca
p1188
aVpotential
p1189
aVhookah
p1190
aVtake
p1191
aVobjective
p1192
aVwanting
p1193
aVencouraged
p1194
aVatop
p1195
aVchannel
p1196
aVsure
p1197
aVpain
p1198
aVtheatre
p1199
aVnormal
p1200
aVtrack
p1201
aVprice
p1202
aVknew
p1203
aVaaronnolannews
p1204
aVparle
p1205
aVbanks
p1206
aVassault
p1207
aVmel_john84
p1208
aVthatgirlravenn
p1209
aVknee
p1210
aVtracy
p1211
aVamerica
p1212
aVcuban
p1213
aVimphal
p1214
aVrashid
p1215
aVconsidered
p1216
aVnonsensical
p1217
aVproud
p1218
aVaswathykrishna8
p1219
aVsale
p1220
aVacabado
p1221
aVderekcarrqb
p1222
aVfille
p1223
aVjustdoit_24
p1224
aVradverkehr-freundliche
p1225
aVaxe
p1226
aVmre
p1227
aVshop
p1228
aVrating
p1229
aVwalking
p1230
aVshot
p1231
aVanna_chess
p1232
aVbeckham
p1233
aVshow
p1234
aVgerman
p1235
aVtakia
p1236
aV10.13
p1237
aVslow
p1238
aVtitle
p1239
aVdick
p1240
aVsaints
p1241
aVescena
p1242
aVlegallywavey
p1243
aVgoing
p1244
aVblack
p1245
aVhockey
p1246
aVsun/moon
p1247
aVconsent
p1248
aVinfo
p1249
aVget
p1250
aVstomp
p1251
aVnell
p1252
aVtruly
p1253
aVnearly
p1254
aV'til
p1255
aV'accepting
p1256
aVtrade
p1257
aVdya
p1258
aVcelebrate
p1259
aVnouveau
p1260
aVartist
p1261
aVsnowblower
p1262
aVrequesting
p1263
aVstupid
p1264
aVleur
p1265
aVnihilego_edex
p1266
aVdiscussing
p1267
aV16th
p1268
aVhusband
p1269
aV5'10
p1270
aVy'all
p1271
aVshahzad
p1272
aVcommittee
p1273
aVrelative
p1274
aVwhoadiebrees
p1275
aVcollege
p1276
aVanyways
p1277
aVcalendar
p1278
aVontura
p1279
aV49ercoug
p1280
aVwonder
p1281
aVcomstocks
p1282
aV24/7
p1283
aVoutside
p1284
aV're
p1285
aVdiamonds
p1286
aVreading
p1287
aVmscastan
p1288
aVkiyomitsuu
p1289
aVrsmutdf
p1290
aVscreen
p1291
aVkilling
p1292
aVblame
p1293
aV23kms
p1294
aVcomo
p1295
aVsparf
p1296
aVarticle
p1297
aVjg
p1298
aVcome
p1299
aVja
p1300
aVguitar
p1301
aVpigeons
p1302
aVrugby
p1303
aVavoid
p1304
aVthings
p1305
aVmany
p1306
aVmonk
p1307
aVpersonal
p1308
aVpresent
p1309
aVdated
p1310
aVthomassanders
p1311
aVshekhargupta
p1312
aVmadness
p1313
aVjj
p1314
aVcolor
p1315
aVpot
p1316
aVpor
p1317
aVtryna
p1318
aVanti
p1319
aVminseoktv
p1320
aVl'article
p1321
aV67
p1322
aVkarlidag
p1323
aVwebmd
p1324
aVwriting
p1325
aVconsidering
p1326
aVcares
p1327
aVlhertz
p1328
aVucla
p1329
aVbandcamp
p1330
aVbreath
p1331
aVyasusada_en
p1332
aVhardly
p1333
aVwants
p1334
aVwldve
p1335
aVshopping
p1336
aVthousand
p1337
aVmovies
p1338
aVlaptops
p1339
aVphotos
p1340
aVsazali
p1341
aVdeclaration
p1342
aVhematology
p1343
aVextant
p1344
aVirrelevant
p1345
aVspirit
p1346
aVcase
p1347
aVhughes
p1348
aVlimits
p1349
aVboris
p1350
aVpolls
p1351
aVsichere
p1352
aVn't
p1353
aVcast
p1354
aVsometime
p1355
aVrhodes
p1356
aVnewspaper
p1357
aVconsults
p1358
aVmixtape
p1359
aVaccording
p1360
aVmiddle
p1361
aVrottenmoo
p1362
aVit-
p1363
aVsoir
p1364
aVmotivated
p1365
aVmothusirockford
p1366
aVtechnology
p1367
aVmovements
p1368
aVpitpup
p1369
aVdifferent
p1370
aVpas
p1371
aVpaw
p1372
aVthreatens
p1373
aVhabsrock3176
p1374
aVmole
p1375
aVfood
p1376
aVspeech
p1377
aVarguments
p1378
aVcoworkers
p1379
aVbuys
p1380
aVlocusts
p1381
aVohnygod
p1382
aVweek
p1383
aVveden
p1384
aVassist
p1385
aVdrives
p1386
aV'they
p1387
aVpersons
p1388
aVrunning
p1389
aVbarber
p1390
aVpressgang
p1391
aVtotally
p1392
aVyoutubers
p1393
aVlandon
p1394
aVcharges
p1395
aVconstitutional
p1396
aVrecital
p1397
aVnothin
p1398
aVwithout
p1399
aVjersey
p1400
aVbottle
p1401
aVoke
p1402
aVnotliketoast
p1403
aVmoney
p1404
aVrest
p1405
aVunearthing
p1406
aVkill
p1407
aVkasich
p1408
aVtouch
p1409
aVcwellbaseball
p1410
aVcaptured
p1411
aVericbernardr
p1412
aVdeath
p1413
aVdipped
p1414
aVfeminist
p1415
aVthinking
p1416
aVrose
p1417
aVseems
p1418
aVexcept
p1419
aVblog
p1420
aVcc
p1421
aVmr_cynic
p1422
aV4
p1423
aVlitty
p1424
aVdisparado
p1425
aVca
p1426
aVfeminism
p1427
aVreal
p1428
aVaround
p1429
aVpsl
p1430
aVread
p1431
aVraaaaiiiidderrrs
p1432
aVvalleymade_
p1433
aVamy
p1434
aVsumn
p1435
aVmoi
p1436
aVmon
p1437
aVmom
p1438
aV3.28
p1439
aVusing
p1440
aVaccepted
p1441
aVlady
p1442
aVgrim
p1443
aVbravery
p1444
aVmeaning
p1445
aVeverytime
p1446
aVmiracle
p1447
aV've
p1448
aVfacing
p1449
aVbenefit
p1450
aVheyday
p1451
aVtower
p1452
aVyonige
p1453
aVsremmurd
p1454
aVlearning
p1455
aVbull
p1456
aVconfused
p1457
aVstmxrk
p1458
aVpacific
p1459
aVrealdonaldtrump
p1460
aVtvn
p1461
aVdemeaning
p1462
aVnuance
p1463
aVpickles
p1464
aVthinks
p1465
aVdolt
p1466
aVgross
p1467
aVcurtosys
p1468
aVmood
p1469
aV1x3
p1470
aVfrees
p1471
aVscottie
p1472
aVstops
p1473
aVmikimatsushima
p1474
aVaussie
p1475
aVnamibia
p1476
aVporter
p1477
aVddd
p1478
aVfootball
p1479
aVreasonable
p1480
aVbusiness
p1481
aVpouring
p1482
aVknives/protect
p1483
aV2375
p1484
aVdespicable
p1485
aVmedina
p1486
aVthrowback
p1487
aVbelive
p1488
aVstereotypes
p1489
aVthrow
p1490
aVmatttrainor_
p1491
aVgiggle
p1492
aVstone
p1493
aVpisze.ledwo
p1494
aVmash-up
p1495
aVcrabtree
p1496
aVoh
p1497
aVdisabilities
p1498
aVfavorite
p1499
aVzihniozdil
p1500
aVsma26th
p1501
aVmuslims
p1502
aVstand
p1503
aVwest
p1504
aVnikeuk
p1505
aVop
p1506
aVwilds
p1507
aVburning
p1508
aVpugnansleaenae
p1509
aVblessed
p1510
aVsnapchat
p1511
aVquix
p1512
aVosmond
p1513
aVonceupona
p1514
aVhomeless
p1515
aVstrip
p1516
aVaccumulated
p1517
aVshenanigans
p1518
aVlog
p1519
aVarea
p1520
aVsideline
p1521
aVlol
p1522
aVccoombs1964
p1523
aVstart
p1524
aVlow
p1525
aVlot
p1526
aVidee
p1527
aVcliffhawksmcbl
p1528
aVdecisive
p1529
aVdeserv
p1530
aVthrowin
p1531
aVago
p1532
aVenough
p1533
aVgamegrumps
p1534
aVlmaooo
p1535
aVjum
p1536
aVjus
p1537
aVtrying
p1538
aVbuying
p1539
aVfaster
p1540
aVrush
p1541
aVl'air
p1542
aVromantic
p1543
aVnaming
p1544
aVdrjillstein
p1545
aVspamming
p1546
aVtrading
p1547
aVagree
p1548
aVdetailed
p1549
aVgone
p1550
aVcnbc
p1551
aVab
p1552
aVad
p1553
aVvideos
p1554
aVrapids
p1555
aVai
p1556
aVcertain
p1557
aVak
p1558
aVdescribe
p1559
aVamaliagerbino
p1560
aVal
p1561
aVdeep
p1562
aVrashidshahzad
p1563
aVau
p1564
aVtogether
p1565
aVwalks
p1566
aVgirlfriend
p1567
aVreutersuk
p1568
aVmoves
p1569
aVoneals
p1570
aVfullfact
p1571
aVfilm
p1572
aVselfish
p1573
aVheather
p1574
aVmika
p1575
aVdrivers
p1576
aVstorage
p1577
aVjebus
p1578
aVfield
p1579
aVthebenwedge
p1580
aVtwerk
p1581
aVtrash
p1582
aVyeranding
p1583
aV^jl
p1584
aVrt
p1585
aVpoop
p1586
aVdrive-thru
p1587
aVhey
p1588
aVcongress
p1589
aVstudents
p1590
aVdeathbyfoui
p1591
aVchris
p1592
aVstate-penn
p1593
aVfinals
p1594
aVsuomessa
p1595
aVdarrencriss
p1596
aVnewses
p1597
aVstudio
p1598
aVfraught
p1599
aVwife
p1600
aVuglier
p1601
aVwets
p1602
aVrbw_mamamoo
p1603
aVdisagreeing
p1604
aVu
p1605
aVbiggib60
p1606
aVprying
p1607
aVrgiii
p1608
aVoverseas
p1609
aVstarting
p1610
aVoriginal
p1611
aVrellytstro22
p1612
aVforget
p1613
aVchinese
p1614
aVhands
p1615
aVlack
p1616
aV*she
p1617
aVcorrer
p1618
aVmonth
p1619
aVdebris
p1620
aVlighten
p1621
aVquarto
p1622
aVfollow
p1623
aVdecisions
p1624
aVchildren
p1625
aVjessie
p1626
aVberry
p1627
aVhunting
p1628
aVtv
p1629
aVequivalence
p1630
aVchampions
p1631
aVavavi_
p1632
aVth
p1633
aVskip
p1634
aVlafuente
p1635
aVte
p1636
aVpresentation
p1637
aVnorm
p1638
aVta
p1639
aVsong
p1640
aVfacetious
p1641
aVfat
p1642
aVvera
p1643
aVfak
p1644
aVnovel
p1645
aVfan
p1646
aVdecide
p1647
aVfall
p1648
aVawful
p1649
aVdifference
p1650
aV.be
p1651
aV26.75
p1652
aV--
p1653
aV24hourfitness
p1654
aVnewyorkfbi
p1655
aVlist
p1656
aVworded
p1657
aV.damn
p1658
aVsang
p1659
aVmegynkelly
p1660
aVsmall
p1661
aVconflicted
p1662
aV5913
p1663
aVusocc
p1664
aVinstagram
p1665
aVfence
p1666
aVsoft-hard
p1667
aV3.10
p1668
aVtea
p1669
aV3.12
p1670
aV3.13
p1671
aVfoxnews
p1672
aVzero
p1673
aVdope
p1674
aVdestiny__gee
p1675
aVpass
p1676
aV-33f
p1677
aVbully
p1678
aVabc
p1679
aVrichard
p1680
aVclock
p1681
aVsection
p1682
aVbrief
p1683
aVschumer
p1684
aVversion
p1685
aV2387
p1686
aV..nvm
p1687
aVlearned
p1688
aVpublic
p1689
aVvamos
p1690
aVfull
p1691
aVfascist
p1692
aVtags
p1693
aVsfgate
p1694
aVrazvesty
p1695
aVanswers
p1696
aVwuppertal
p1697
aVhours
p1698
aVfucks
p1699
aVsalomonsaaret
p1700
aVmulroney
p1701
aVnovember
p1702
aVstrong
p1703
aV-click
p1704
aVspeeches
p1705
aVbible
p1706
aVahead
p1707
aVjackie
p1708
aVcucumbers
p1709
aVhost
p1710
aVsocial
p1711
aVaction
p1712
aVvia
p1713
aVfollowed
p1714
aVfamily
p1715
aVbermain
p1716
aVmme
p1717
aVallysonfelix
p1718
aVspaceghostvil
p1719
aVnikenyc
p1720
aVthejusticedept
p1721
aVtakes
p1722
aVconocer
p1723
aVtwo
p1724
aVarchives
p1725
aV6
p1726
aVbranded
p1727
aVimplied
p1728
aVivote4usa
p1729
aVthrows
p1730
aVknows
p1731
aVcompany
p1732
aVexcuse
p1733
aVflag
p1734
aVbasically
p1735
aVbroke
p1736
aVglad
p1737
aVgrill
p1738
aVhour
p1739
aVdep
p1740
aVdes
p1741
aVcoalition
p1742
aVmall
p1743
aVdel
p1744
aVdem
p1745
aVlearn
p1746
aVmale
p1747
aVpisze.jest
p1748
aVbeautiful
p1749
aVsharm
p1750
aVbrown
p1751
aVbb18
p1752
aVtadashifilters
p1753
aVaccept
p1754
aVomg_waitwhat
p1755
aVstates
p1756
aVsense
p1757
aVfuentes
p1758
aVhhh
p1759
aVrobinson
p1760
aVcachorro
p1761
aVinformation
p1762
aVneeds
p1763
aVcourt
p1764
aVgoal
p1765
aVawkward
p1766
aVrather
p1767
aVcomfort
p1768
aVphi
p1769
aV//waitwhat
p1770
aVbitch..
p1771
aVaaaaaaalcuhh
p1772
aVashleyapplepie
p1773
aVcst
p1774
aVgoat
p1775
aVfr
p1776
aVokay
p1777
aVtried
p1778
aVrude
p1779
aVgoals=
p1780
aVbrett
p1781
aVfa
p1782
aVfb
p1783
aVstreets
p1784
aVcoming
p1785
aV-36c
p1786
aVchoice
p1787
aVresponse
p1788
aVscore.kocz
p1789
aVpreciate
p1790
aVbayoolufemi
p1791
aVdoctor
p1792
aVseconds
p1793
aVdragon
p1794
aVgoddoesnt
p1795
aVthevulcansalute
p1796
aVdread
p1797
aVmedia
p1798
aVlmfaooooo
p1799
aVputting
p1800
aVft.
p1801
aVshimazaki.gram
p1802
aVplaying
p1803
aVraelikesturtles
p1804
aVding
p1805
aVhelp
p1806
aVbowl
p1807
aVheartfelt
p1808
aVinstalled
p1809
aVheld
p1810
aVkc_in_nyc
p1811
aVpaper
p1812
aVfilters
p1813
aVhell
p1814
aVislam
p1815
aV24
p1816
aVmember
p1817
aValle
p1818
aV20
p1819
aV21
p1820
aV23
p1821
aVpronto
p1822
aVottawa
p1823
aVfairbanks
p1824
aVsolving
p1825
aVcomplex
p1826
aVactually
p1827
aVlate
p1828
aVruining
p1829
aVpenn
p1830
aVbout
p1831
aVmight
p1832
aVcolleague
p1833
aVgood
p1834
aVsomebody
p1835
aVhorikawa_en
p1836
aVyo
p1837
aVya
p1838
aVsucker
p1839
aVfrizzy
p1840
aVstarbucks
p1841
aVparty
p1842
aVfoot
p1843
aVbigger
p1844
aVsucked
p1845
aVpregnant
p1846
aValways
p1847
aVintracies
p1848
aVtronnorswild
p1849
aVolansamuelle
p1850
aVlombardo
p1851
aVsomeone
p1852
aVcharitys
p1853
aVstopped
p1854
aVfound
p1855
aVjamerson
p1856
aVintolerable
p1857
aVinvestigators
p1858
aValexcastropt
p1859
aVsterling
p1860
aVneil
p1861
aVmental
p1862
aVcolder
p1863
aVfish
p1864
aVhard
p1865
aVoppressed
p1866
aVgeeklyinc
p1867
aVhawaii
p1868
aVfelicityingram
p1869
aVconnect
p1870
aVripple
p1871
aVdefund
p1872
aVjustdoit_nh
p1873
aVheave
p1874
aVblochs
p1875
aVharp
p1876
aVj'en
p1877
aVdeals
p1878
aV13.30km
p1879
aVmissed
p1880
aVlxke_pengxin
p1881
aVchildish
p1882
aVsince
p1883
aVloll
p1884
aVwolverine
p1885
aVacting
p1886
aVhealth
p1887
aVaghlolor
p1888
aV7
p1889
aVlife-changing
p1890
aVwhayshahah
p1891
aVass
p1892
aVrefusal
p1893
aVwisconsin
p1894
aVdunn
p1895
aVpathetic
p1896
aVaudubonsociety
p1897
aV3.01
p1898
aVteam
p1899
aVhorse
p1900
aVhouses
p1901
aVreason
p1902
aVbase
p1903
aVclique
p1904
aVask
p1905
aVloads
p1906
aVthrown
p1907
aVpotro
p1908
aVamerican
p1909
aVexpecting
p1910
aVdue
p1911
aVw
p1912
aVexistential
p1913
aVcastle
p1914
aVassign
p1915
aVbadhair
p1916
aVridership
p1917
aVhorndog
p1918
aVmajor
p1919
aVunhealthy
p1920
aVterrifyingly
p1921
aVemblazoned
p1922
aVfeel
p1923
aVjavalemcgee34
p1924
aVnumber
p1925
aVwelcome
p1926
aVfucked
p1927
aVdonc
p1928
aVgazes
p1929
aVdone
p1930
aVmoe_justdoit
p1931
aVmiss
p1932
aVmaple
p1933
aVidea
p1934
aVrazor
p1935
aVguess
p1936
aVtemperature
p1937
aVbenedict
p1938
aVtwenty
p1939
aV5th
p1940
aVleast
p1941
aVqb
p1942
aVsharm_runners
p1943
aVswarm
p1944
aVwonderful
p1945
aVundies
p1946
aVarguing
p1947
aVblt123_waitwhat
p1948
aVstore
p1949
aV-get
p1950
aVlitt
p1951
aV2621
p1952
aVtouuuuchhhdoowwnnnn
p1953
aVpara
p1954
aVbehind
p1955
aVpark
p1956
aVpart
p1957
aVcjargo44
p1958
aVzeppelin
p1959
aVbelieve
p1960
aVgrace
p1961
aVdavidjo52951945
p1962
aVkind
p1963
aVb
p1964
aVdouble
p1965
aVconveniences
p1966
aVdon_asmussen
p1967
aVdank
p1968
aVsupposed
p1969
aVoutdoors
p1970
aVlease
p1971
aVmotivation
p1972
aVuncomfortable
p1973
aVtexans
p1974
aValongside
p1975
aVaussi
p1976
aVrandomly
p1977
aVdownload
p1978
aVilliterate
p1979
aVseason1
p1980
aVphilly
p1981
aVorders
p1982
aVmidget.it
p1983
aVoption
p1984
aVmountain
p1985
aVspeaking
p1986
aVjour
p1987
aVrelationship
p1988
aVlib
p1989
aVdancing
p1990
aVlil
p1991
aVloooong
p1992
aVscotland
p1993
aVumedeto
p1994
aVlit
p1995
aValso
p1996
aVsmurray38
p1997
aVpahty
p1998
aVdirectives
p1999
aVukips
p2000
aVhymn
p2001
aVplay
p2002
aVbrendon
p2003
aVj'lonte
p2004
aVquote
p2005
aVjustdoit_swank
p2006
aVbrooklyn
p2007
aVplan
p2008
aVamas
p2009
aVnothing
p2010
aValpha
p2011
aVkay
p2012
aVdirtyheads
p2013
aVachievement
p2014
aV5-4
p2015
aV5-6
p2016
aVchronicle
p2017
aVgoodwill
p2018
aVgroenlinks
p2019
aVclear
p2020
aVsometimes
p2021
aVcover
p2022
aVkm
p2023
aVtraditional
p2024
aVwaitwhat.jpg
p2025
aVphysics
p2026
aVautomatically
p2027
aVthomas
p2028
aVcroix
p2029
aVkisa_thekeks
p2030
aVgold
p2031
aVcommissions
p2032
aVevilchesto
p2033
aVstfu
p2034
aVmultilateral
p2035
aVse
p2036
aVmelody
p2037
aVfind
p2038
aVgiant
p2039
aV10.26
p2040
aVescola
p2041
aVjustice
p2042
aVnervous
p2043
aVmfg
p2044
aVkade
p2045
aVfailed
p2046
aVdesiigner
p2047
aVpretty
p2048
aVsuspecious
p2049
aVmarathons
p2050
aV8
p2051
aVdouble4
p2052
aVlegible
p2053
aVhit
p2054
aVgains
p2055
aVbanned
p2056
aVtrees
p2057
aVfeels
p2058
aVcourage
p2059
aVlongest
p2060
aVclosely
p2061
aVreply
p2062
aVhil
p2063
aVenemy
p2064
aVfallible
p2065
aVtmobile
p2066
aVprogressive
p2067
aVblackpink
p2068
aVkisses
p2069
aVwhiteeaglestore
p2070
aVwwwwww
p2071
aVinvestigate
p2072
aVmfs
p2073
aVcommon
p2074
aVnaughty
p2075
aVdoubles
p2076
aVplank
p2077
aVimo
p2078
aVinsane
p2079
aV7.31
p2080
aVart
p2081
aVcreator
p2082
aVthrowing
p2083
aVvine
p2084
aVsex
p2085
aVculture
p2086
aVsee
p2087
aVdefense
p2088
aVclose
p2089
aVretweet
p2090
aVthreats
p2091
aVnailed
p2092
aVwow
p2093
aVplease
p2094
aVslapped
p2095
aVdegrading
p2096
aVjstamboulieh
p2097
aVjustdoit_0615
p2098
aVchampagne
p2099
aVsteelers
p2100
aV_kittysenpai_
p2101
aV27.50
p2102
aVmissing
p2103
aVtsukki
p2104
aVunstoppable
p2105
aVulearnnz
p2106
aVpilts
p2107
aVjimrutenberg
p2108
aVclarionproject
p2109
aVads
p2110
aVc
p2111
aVlast
p2112
aVmemorized
p2113
aVannual
p2114
aVforeign
p2115
aVkeir_starmer
p2116
aVrupert_travis
p2117
aVamctalkingdead
p2118
aVfraternity
p2119
aVboxers
p2120
aVwhole
p2121
aVsenators/team
p2122
aVmini
p2123
aVsimple
p2124
aVbinny
p2125
aVnotjackkemp
p2126
aVnortheastern
p2127
aVcommunity
p2128
aVtennessee
p2129
aVsimply
p2130
aVlikes
p2131
aVluis
p2132
aVgreatdonovan
p2133
aVopenness
p2134
aVthroughout
p2135
aV10.60
p2136
aVduh
p2137
aVdevil
p2138
aVdun
p2139
aVbabychaiel_85
p2140
aVcreate
p2141
aVdud
p2142
aVlets
p2143
aVsecret
p2144
aVdescribes
p2145
aVdamn
p2146
aVireland
p2147
aVmorning_joe
p2148
aVfu-
p2149
aVmeeting
p2150
aVpo
p2151
aVwoke
p2152
aVpm
p2153
aVreferee
p2154
aVanythin
p2155
aVsquirrel
p2156
aVgay
p2157
aVboy
p2158
aVfire
p2159
aV6.10
p2160
aVgas
p2161
aVelse
p2162
aVkalmax
p2163
aVwhatever
p2164
aVunderstand
p2165
aVnamewithnumbers
p2166
aVprices
p2167
aVdeport
p2168
aVgeorgia
p2169
aVlook
p2170
aVstraight
p2171
aVbill
p2172
aVconvo
p2173
aVkodak
p2174
aVpace
p2175
aVbikini
p2176
aVrebehold
p2177
aVfrikkenj
p2178
aVjihadwatchrs
p2179
aVbehavior
p2180
aVnuuuu
p2181
aVfun
p2182
aVdominic
p2183
aVanimated
p2184
aVbrands
p2185
aVtheres
p2186
aVswim
p2187
aV30
p2188
aVaprs
p2189
aVvoters
p2190
aVvon
p2191
aVscientology
p2192
aVreads
p2193
aVcentennial
p2194
aVready
p2195
aVlunkhead
p2196
aV2015.
p2197
aVuncrpd
p2198
aVfunny
p2199
aVcommunal
p2200
aV31-29
p2201
aVshirt
p2202
aVanymore
p2203
aV5.01
p2204
aVdeslaurier
p2205
aVgrand
p2206
aV9
p2207
aV*record
p2208
aVpray
p2209
aVused
p2210
aVlawyers
p2211
aVlie
p2212
aVunderstating
p2213
aVassignment
p2214
aVgallery
p2215
aVyesterday
p2216
aVholidays
p2217
aVmoment
p2218
aVuses
p2219
aVsput_nick
p2220
aVawsreinvent
p2221
aVstores..
p2222
aVbuilt
p2223
aVdark
p2224
aVolder
p2225
aVlimbaugh
p2226
aVspent
p2227
aVobviously
p2228
aVwaitwhat_id
p2229
aVperson
p2230
aVflags
p2231
aVfive
p2232
aVspend
p2233
aVpackout
p2234
aVpreference
p2235
aVcoup
p2236
aVa__vigil
p2237
aVceo
p2238
aVex*
p2239
aVtheee
p2240
aVciaaaa
p2241
aVgo_dumb_dee
p2242
aVquestions
p2243
aVmob
p2244
aVelect
p2245
aVpraying
p2246
aVforrest
p2247
aVinjuries
p2248
aVprocrastinating
p2249
aV-wait
p2250
aVphtraffic
p2251
aVemotionally
p2252
aVcorrecting
p2253
aVvukaenergydrink
p2254
aVlabour
p2255
aVdare
p2256
aVtheorem
p2257
aVsnap
p2258
aVexcited
p2259
aVhates
p2260
aV...
p2261
aVcustomers
p2262
aVmarch
p2263
aVqueso
p2264
aVbig
p2265
aVdropping
p2266
aVunlimited
p2267
aVv60
p2268
aVthedailybeast
p2269
aVshitty
p2270
aVgame
p2271
aVtruely
p2272
aVbiz
p2273
aVbit
p2274
aVsignal
p2275
aVmarquei
p2276
aVdonny
p2277
aVroyally
p2278
aVfeelattt
p2279
aVhowell
p2280
aVfault
p2281
aVerhan
p2282
aVsketch
p2283
aVgoogle
p2284
aVjack_septic_eye
p2285
aVfucking
p2286
aV1st
p2287
aVback
p2288
aVb+
p2289
aV3.7
p2290
aVadded
p2291
aVexamples
p2292
aVsight
p2293
aVcurious
p2294
aVehhh
p2295
aVkeighley
p2296
aVdenominations
p2297
aVbone_justdoit
p2298
aVselalu
p2299
aV4feedback
p2300
aVpros
p2301
aVoblivion
p2302
aVmeds
p2303
aVpounding
p2304
aVcivilization
p2305
aVcentral
p2306
aVpee
p2307
aVdating
p2308
aVgood-
p2309
aVeither
p2310
aVrun
p2311
aVbb
p2312
aVmenya
p2313
aVrub
p2314
aVword
p2315
aVconfidence
p2316
aVs/o
p2317
aVrace4caster
p2318
aVelectoral
p2319
aVconcealed
p2320
aV2/2
p2321
aVintense
p2322
aVpipeline
p2323
aVanything
p2324
aVnetflix
p2325
aVpapped
p2326
aVgraduation
p2327
aVido
p2328
aVballgame
p2329
aVhallsville
p2330
aVsuzangregory2
p2331
aVhere..
p2332
aVgermany
p2333
aVcanning
p2334
aVsilence
p2335
aVseeing
p2336
aVclinton
p2337
aVgarbage
p2338
aVdude
p2339
aVconquest
p2340
aVdichotomy-
p2341
aVappropriate
p2342
aVcameoutswingin_
p2343
aVphilrowen
p2344
aVlesson
p2345
aVfrance
p2346
aVlebron
p2347
aVsmells
p2348
aVimpressed
p2349
aVnje
p2350
aV..
p2351
aVspam
p2352
aVquestion
p2353
aVsussing
p2354
aVlong
p2355
aVaccountability
p2356
aVbazar
p2357
aVbruh
p2358
aVforward
p2359
aVfeinsteinssf
p2360
aVbosse
p2361
aVcreepy
p2362
aVbrexit-remain
p2363
aVbyzantine
p2364
aVstraight-up
p2365
aVposter
p2366
aVadjusting
p2367
aVpastor
p2368
aVboys
p2369
aVlink
p2370
aVfishy
p2371
aVdelta
p2372
aVline
p2373
aVnewstation
p2374
aVrazor921
p2375
aVposted
p2376
aVatrainkickz
p2377
aVhair
p2378
aVcaller
p2379
aVpeppermint
p2380
aVur
p2381
aVum
p2382
aVun
p2383
aVuh
p2384
aVuk
p2385
aVaversion
p2386
aVintendment
p2387
aVlardarius
p2388
aVcalled
p2389
aVgenial
p2390
aVv
p2391
aVassociated
p2392
aVsoars
p2393
aVliberty_trump
p2394
aVgillian_marston
p2395
aVsingle
p2396
aVdiving
p2397
aVrally
p2398
aVmalikhenry_2
p2399
aVtvg
p2400
aVpedicured
p2401
aVcodes
p2402
aVlemon
p2403
aVnah
p2404
aVtelevisual
p2405
aVlyndsey_talbot
p2406
aVpreempt
p2407
aVtimkawakami
p2408
aVtheology
p2409
aV//remember
p2410
aVyuurionviktor
p2411
aVnice
p2412
aVfavourite
p2413
aVkansas
p2414
aV2644
p2415
aVnatgeo
p2416
aVhelping
p2417
aVdrag
p2418
aVutterly
p2419
aVleafyishere
p2420
aVcooperate
p2421
aVfarmersway
p2422
aVscribbled_death
p2423
aVremix
p2424
aVland
p2425
aVe
p2426
aVyoutube
p2427
aVtexter
p2428
aVhella
p2429
aVdistain
p2430
aVbuffalo
p2431
aVhello
p2432
aVhelll
p2433
aVessay
p2434
aVgt
p2435
aVborderlands
p2436
aVscratch
p2437
aVrelationsh
p2438
aVsorries
p2439
aVresults
p2440
aVproduce
p2441
aVgf
p2442
aVgo
p2443
aVcharms
p2444
aVissues
p2445
aVpervert
p2446
aVlyrics
p2447
aVconcerned
p2448
aVyoung
p2449
aVsend
p2450
aVndsnutrition
p2451
aVwaitwhat
p2452
aVblaze
p2453
aVapa1906network
p2454
aVmaryland
p2455
aVwomen
p2456
aVsent
p2457
aVpay
p2458
aVwaitwhat_tv
p2459
aVcontinues
p2460
aVcream*
p2461
aVfacebook
p2462
aVtelling
p2463
aVslogan
p2464
aVtutu
p2465
aVqcterme
p2466
aVentire
p2467
aVmagic
p2468
aVrespectful
p2469
aVtra
p2470
aVnotes
p2471
aVsanctions
p2472
aVmichael
p2473
aVkansa
p2474
aVtry
p2475
aVsnwdncw
p2476
aV2.28
p2477
aVmediumreyre
p2478
aVknife
p2479
aVfacemask
p2480
aVkproulx_
p2481
aVlooool
p2482
aV350
p2483
aVblitz
p2484
aVvideo
p2485
aVpicked
p2486
aVummm
p2487
aVcartel
p2488
aVodd
p2489
aVclick
p2490
aVdepression
p2491
aV2601
p2492
aVcondorcet
p2493
aVdirective
p2494
aVgiving
p2495
aVfalcons
p2496
aValex_32ita
p2497
aVaccess
p2498
aVconsistently
p2499
aVwaiting
p2500
aVeating
p2501
aVcapital
p2502
aVexpresses
p2503
aVnicholas
p2504
aVbird
p2505
aVdelighted
p2506
aVcozy
p2507
aVstance
p2508
aVluiz
p2509
aVexplore
p2510
aVles
p2511
aVlet
p2512
aVsink
p2513
aVothers
p2514
aVsing
p2515
aVmindset
p2516
aVhudl
p2517
aVgreat
p2518
aV38
p2519
aVdidnt
p2520
aVcasino
p2521
aValaska
p2522
aV35
p2523
aVleaving
p2524
aV4.99
p2525
aV3.
p2526
aVdefeat
p2527
aVopinion
p2528
aVmakes
p2529
aVthats
p2530
aVu.k.
p2531
aVapple
p2532
aVclaim
p2533
aVsneaker_zombie
p2534
aVwin
p2535
aVsomwhat
p2536
aVcolinjones
p2537
aVsnapped
p2538
aVaustria
p2539
aVnames
p2540
aVcheerleader
p2541
aVsinging
p2542
aVgenesis_ebooks
p2543
aVuse
p2544
aVprotgez-vous
p2545
aVusa
p2546
aVlive
p2547
aVmr_ralph_
p2548
aVnext
p2549
aVdoubt
p2550
aVmosbear64
p2551
aVcongratulates
p2552
aVmeans
p2553
aVchip
p2554
aVcheeks
p2555
aVbabe
p2556
aVjournalists
p2557
aVsaraheholl
p2558
aVstarted
p2559
aVnfluk
p2560
aVshmaggie209
p2561
aVhein
p2562
aVsore
p2563
aVbaby
p2564
aVok
p2565
aVlengua-ok
p2566
aVzillow
p2567
aVcustomer
p2568
aVaccount
p2569
aVtutt_justdoit
p2570
aVhyobvious
p2571
aVannouncing
p2572
aVlocks
p2573
aVride
p2574
aVinsists
p2575
aVpour
p2576
aVenjoying
p2577
aVfindlays
p2578
aVrickygervais
p2579
aVnarratives
p2580
aVcolossal
p2581
aVlordhnelson
p2582
aVpotus
p2583
aVsomething
p2584
aVpoint
p2585
aVchicagobears
p2586
aVcalculation
p2587
aV0.2
p2588
aVpieces
p2589
aVhigh
p2590
aVbend
p2591
aVnonantes
p2592
aVbasimafaysal
p2593
aVtan
p2594
aVarnia
p2595
aVsis
p2596
aVsir
p2597
aVdwp
p2598
aVpro-eu
p2599
aVlame
p2600
aVprotect
p2601
aVpurpose
p2602
aVsix
p2603
aVstruggles
p2604
aVafc
p2605
aVgcu
p2606
aVelliptical
p2607
aVfeto
p2608
aVfoxonabox_
p2609
aVsin
p2610
aVparce
p2611
aVfuriously
p2612
aVwatch
p2613
aVtestimony
p2614
aVtied
p2615
aV3
p2616
aVhalted
p2617
aVdiscomfort
p2618
aVnotebook
p2619
aVgarylineker
p2620
aVtaco
p2621
aVspelling
p2622
aVda
p2623
aVhbsche
p2624
aVrealized
p2625
aVtwins
p2626
aVzennybleats
p2627
aVdemocracy
p2628
aVdaycare
p2629
aVlight
p2630
aVclasse
p2631
aVlines
p2632
aVjuliahb1
p2633
aVchief
p2634
aVspain
p2635
aVunreleased
p2636
aVagenda
p2637
aVstinbro
p2638
aVmaaaay
p2639
aVknotenpunkte
p2640
aVmove
p2641
aVequally
p2642
aVsymbols
p2643
aVwhilst
p2644
aVmathematicians
p2645
aVcostume
p2646
aVtyrant
p2647
aVmentioned
p2648
aVbadges
p2649
aVperfect
p2650
aVspotify
p2651
aVle
p2652
aVblueststocking
p2653
aVg4christina
p2654
aVchosen
p2655
aVpreviously
p2656
aVlt
p2657
aVtyler
p2658
aVdegrees
p2659
aVdermot
p2660
aVgoawtcbgf
p2661
aV2015
p2662
aV12.09
p2663
aV2017
p2664
aVholiday
p2665
aVespncfb
p2666
aVdad
p2667
aVcontention
p2668
aVantidem
p2669
aVstaat
p2670
aVunmatch
p2671
aVkiss
p2672
aVinstead
p2673
aVfront
p2674
aV12/8
p2675
aVrealize
p2676
aVmasters
p2677
aVtoes
p2678
aVdrummers
p2679
aVuniversity
p2680
aVnfl
p2681
aVnononojo
p2682
aVplayoff
p2683
aVgohiveapp
p2684
aVslipping
p2685
aVtruth
p2686
aVtights
p2687
aVpromise
p2688
aVraised
p2689
aVbills
p2690
aVlijst
p2691
aVoui
p2692
aVdetermine
p2693
aVranger_up
p2694
aVrelated
p2695
aVbooks
p2696
aVmitchachell
p2697
aVsherman-palladino
p2698
aVbrodie
p2699
aVbay
p2700
aVagriculture
p2701
aVmatt
p2702
aVmatrix
p2703
aVemt
p2704
aVhouse
p2705
aVday
p2706
aVcritics
p2707
aVvenom
p2708
aVren
p2709
aVpffft-
p2710
aVhilarious
p2711
aVcause
p2712
aVreg
p2713
aVred
p2714
aVmynameisjonah
p2715
aVjessica
p2716
aVmattctvg
p2717
aVitschiddy
p2718
aVfrank
p2719
aVcompletely
p2720
aVque
p2721
aVqui
p2722
aVcomeback
p2723
aVbothered
p2724
aVscary
p2725
aVjustintrudeau
p2726
aVorganic
p2727
aVfuuuu
p2728
aVcatalonian
p2729
aVcause-effect
p2730
aVcould
p2731
aVput
p2732
aVtimes
p2733
aVconversation
p2734
aV49ers
p2735
aVbirthday
p2736
aVfrens
p2737
aVtimeslot
p2738
aVnotaxelle
p2739
aVfait
p2740
aVfinest
p2741
aVmelvant_mlg
p2742
aVtonistark4real
p2743
aVpowerful
p2744
aVscene
p2745
aVjesus
p2746
aVathertonkd
p2747
aVdate
p2748
aVreached
p2749
aVlablayp
p2750
aVsisters
p2751
aVplaylist
p2752
aVhawk
p2753
aVlos
p2754
aVdata
p2755
aVunequivocal
p2756
aVaccent
p2757
aVj'arrive
p2758
aVattack
p2759
aV'doable
p2760
aVpresident-elect
p2761
aVperfectly
p2762
aVreally
p2763
aVcabin
p2764
aVsmelting
p2765
aVglimmer
p2766
aVdtlb
p2767
aVexactly
p2768
aVgrandpa
p2769
aVcommence
p2770
aVremember
p2771
aVben
p2772
aV|-/
p2773
aVbec
p2774
aVbrady
p2775
aVbed
p2776
aVbee
p2777
aVnum
p2778
aVorchestrated
p2779
aVloves
p2780
aVmaybe
p2781
aVcollins
p2782
aVcoronation
p2783
aVbet
p2784
aVdrunk
p2785
aVfalse
p2786
aVpartnership
p2787
aVgently
p2788
aVrobot
p2789
aVcomfortable
p2790
aVtonight
p2791
aVjohn_quaintance
p2792
aVhooping
p2793
aVfourteenth
p2794
aVsen
p2795
aVneed
p2796
aV4everlamar
p2797
aVapparently
p2798
aVpewdiepie
p2799
aVrentre
p2800
aVissue
p2801
aVheartlessclo
p2802
aVmil
p2803
aVcongrats
p2804
aVarm
p2805
aVemmonsaggie
p2806
aVjail
p2807
aVmis
p2808
aVchipotletweets
p2809
aVleahremini
p2810
aV7-day
p2811
aVfidel
p2812
aVaww
p2813
aV26-10
p2814
aVaxsup
p2815
aVhahahahha
p2816
aVbaseboard
p2817
aVumm
p2818
aVexpired
p2819
aVsa
p2820
aVstrangparkhead
p2821
aVdeny
p2822
aVrefreshing
p2823
aVjohnlegere
p2824
aVklo
p2825
aVkryptoleith
p2826
aVrun6,2km
p2827
aVcucumbers..
p2828
aVabsurd
p2829
aVdiagnostics
p2830
aVbrew
p2831
aVa.d.d
p2832
aVmurraynewlands
p2833
aVfact
p2834
aVmocha
p2835
aVtraveller
p2836
aVchances
p2837
aVtext
p2838
aVburners
p2839
aVwins
p2840
aVbring
p2841
aVs.l.a.n
p2842
aVpoltamme
p2843
aVutter
p2844
aVjordan___walker
p2845
aVnightone
p2846
aVpause
p2847
aVbased
p2848
aVearned
p2849
aVsparks
p2850
aVaswathykr
p2851
aVfans
p2852
aVpre-opening
p2853
aVbiopic
p2854
aVbelated
p2855
aVambiguity
p2856
aVcombo
p2857
aVriding
p2858
aVcommunist
p2859
aVbells
p2860
aVthousands
p2861
aVhope
p2862
aVq.
p2863
aVcoolbluelester
p2864
aVdaybook
p2865
aVhandle
p2866
aVsweetie
p2867
aVcuba
p2868
aVkiddynamiteesq
p2869
aVmichigan
p2870
aVflirting
p2871
aVunacceptable
p2872
aVtbh
p2873
aVawww
p2874
aVones
p2875
aVperfection
p2876
aVwords
p2877
aVprobably
p2878
aVgray
p2879
aVdonate
p2880
aVqu
p2881
aVvayas
p2882
aVtaxes
p2883
aVteams
p2884
aVfelipe
p2885
aVstuff
p2886
aVgran
p2887
aVcontain
p2888
aVgvilletn
p2889
aVgrab
p2890
aVwatchin
p2891
aV11am
p2892
aVtruer
p2893
aVj
p2894
aVnational
p2895
aVorphan
p2896
aVfreeze
p2897
aVtravis
p2898
aVself-proclaimed
p2899
aVterms
p2900
aVexpects
p2901
aVcloser
p2902
aVerror
p2903
aVencore
p2904
aVadolphsonracing
p2905
aVnightmare
p2906
aVstate
p2907
aVsupernatural
p2908
aVnewfag
p2909
aVlables
p2910
aVpants
p2911
aVopening
p2912
aVgambino
p2913
aVjoy
p2914
aVimplementing
p2915
aVjob
p2916
aVasst
p2917
aVprecious
p2918
aVbackfired
p2919
aVlegit
p2920
aVdavid
p2921
aVjason_wussler
p2922
aVplanned
p2923
aVgtf
p2924
aVett
p2925
aVjoke
p2926
aVtaking
p2927
aVconmigo
p2928
aVaqua
p2929
aVflirteegirl
p2930
aVrams
p2931
aVcarols
p2932
aVshineeyeshay
p2933
aVcinder
p2934
aVmurder
p2935
aVcamera
p2936
aVinvites
p2937
aVganeshwaridod
p2938
aVgrounds
p2939
aVlncsvgvvz
p2940
aVgasp
p2941
aVch
p2942
aVstatues
p2943
aVagents
p2944
aVwall
p2945
aVtuesday
p2946
aVmakin
p2947
aVce
p2948
aVartbook
p2949
aVcarbon
p2950
aVrespect
p2951
aVcole
p2952
aVoakland
p2953
aVshereejohns
p2954
aVcitizenship
p2955
aVbbn
p2956
aVwindermere
p2957
aVlicensed2ruffle
p2958
aVqueenofrider
p2959
aVtylerrjoseph
p2960
aVcopies
p2961
aVyan
p2962
aVoh.my
p2963
aVah
p2964
aVwx
p2965
aVlouisiana
p2966
aVusername
p2967
aVmike
p2968
aVt'es
p2969
aVperplexed
p2970
aVverizon
p2971
aVmoved
p2972
aVangelsfreak7
p2973
aVcheekycpetersen
p2974
aVsales
p2975
aVgtx
p2976
aVcovered
p2977
aVsmoking
p2978
aVbrunch
p2979
aVravens
p2980
aVshameless
p2981
aVlebanese
p2982
aV2016
p2983
aVcockeyed
p2984
aVdodge
p2985
aVplain
p2986
aValoe
p2987
aVvalue
p2988
aVchoices
p2989
aVlistas
p2990
aVhahaha
p2991
aVjustdoit_omar
p2992
aVlassitude
p2993
aVgroin
p2994
aVsmjalageri
p2995
aVva
p2996
aVringing
p2997
aValmost
p2998
aVrefs
p2999
aVaway..
p3000
aVpitt
p3001
aVhelped
p3002
aV'interpretations
p3003
aVvs
p3004
aVrenatinhokrf
p3005
aVswinging
p3006
aV___justdoit_
p3007
aVsits
p3008
aVscotus
p3009
aVtattoo
p3010
aVproductivity
p3011
aVparte
p3012
aVbegan
p3013
aVzenzom_
p3014
aVadministration
p3015
aVeric
p3016
aVmcdermott
p3017
aVunity
p3018
aVlizas
p3019
aVooooooooh
p3020
aVgets
p3021
aVconfucius
p3022
aVdifficult
p3023
aVtiempo
p3024
aVball
p3025
aVreactionary
p3026
aVprettygirlgg11
p3027
aVbrad
p3028
aVeffect
p3029
aV24-23
p3030
aVmarrshow
p3031
aVbaalke
p3032
aVstudent
p3033
aVfierce
p3034
aVshitting
p3035
aVpht
p3036
aV//
p3037
aVreflection
p3038
aVconfronted
p3039
aVwell
p3040
aVbanging
p3041
aVpeinado-ok
p3042
aVthought
p3043
aVoops
p3044
aVsets
p3045
aVposition
p3046
aVcon
p3047
aV/1
p3048
aVarrogant_shit
p3049
aVex-nfl
p3050
aVless
p3051
aVaccurate
p3052
aVgritar
p3053
aVstorey
p3054
aVcorinncuellar
p3055
aVstored
p3056
aV40
p3057
aVdakota
p3058
aVtimothysmith582
p3059
aVaguero
p3060
aVway-too-simple
p3061
aVarslan-
p3062
aVbell
p3063
aVlake
p3064
aVkilled
p3065
aVfeinsteins
p3066
aV5
p3067
aVsmart
p3068
aVacted
p3069
aVought
p3070
aVdetails
p3071
aVsonia
p3072
aVjennalee
p3073
aVfate
p3074
aVgovernment
p3075
aVmunich
p3076
aVunambiguous.a
p3077
aVchipsanders
p3078
aV'behind
p3079
aVknow
p3080
aVpress
p3081
aVimmediately
p3082
aVpassword
p3083
aVstemmenstemmenstemmen
p3084
aVforcing
p3085
aVlike
p3086
aVonion
p3087
aVcriss
p3088
aVfernando
p3089
aV20k
p3090
aVj'y
p3091
aVkslsharapark
p3092
aV2259
p3093
aVmiamidolphins
p3094
aVbecome
p3095
aVsofs
p3096
aVrefugees
p3097
aVpage
p3098
aVveritaz
p3099
aVreplacement
p3100
aVnigga
p3101
aVpropel
p3102
aVsequence
p3103
aV11-
p3104
aVtwitter
p3105
aVchurch
p3106
aVtumblr
p3107
aVgrowth
p3108
aV110
p3109
aVhome
p3110
aVpeter
p3111
aVhappens
p3112
aVest
p3113
aVlead
p3114
aVnanaman
p3115
aVvonnie__b
p3116
aVliterally
p3117
aVmishacollins
p3118
aVcampeones
p3119
aVbursts
p3120
aVpassion
p3121
aVassuming
p3122
aVmigos
p3123
aVnoise
p3124
aV*licks
p3125
aVslight
p3126
aVike/soren
p3127
aV_zo11
p3128
aVmitt
p3129
aVclerical
p3130
aVmurdered
p3131
aV4everbrandy
p3132
aVinstinct
p3133
aVmotive
p3134
aV/elusih
p3135
aVthinkcookcook
p3136
aVvs.
p3137
aVsister
p3138
aVactual
p3139
aVputs
p3140
aVworld
p3141
aVgetting
p3142
aVspilled
p3143
aVheaded
p3144
aVlouisville
p3145
aVmoment~~
p3146
aVstatement
p3147
aVbandmate
p3148
aVsoftware
p3149
aVowo
p3150
aVchildrens
p3151
aVkeeps
p3152
aVibujalyl
p3153
aVarticulate
p3154
aVreferendum
p3155
aVtackle
p3156
aVguard
p3157
aVsalty_language
p3158
aVbrush
p3159
aVfemale
p3160
aVkinda
p3161
aVquiet
p3162
aVmere
p3163
aVnrjhitmusiconly
p3164
aVvan
p3165
aVbrownies
p3166
aVprospects
p3167
aVjustifying
p3168
aV-naughty
p3169
aVpopehat
p3170
aVaccentuate
p3171
aVoakleys
p3172
aVmarciabraady
p3173
aVflyheight_van
p3174
aVyrs
p3175
aVskynewsaust
p3176
aVjjhorgan
p3177
aVwashingtonpost
p3178
aVbuy
p3179
aVnorth
p3180
aVcllrsmccabe
p3181
aV-dc
p3182
aVbrand
p3183
aVbitches
p3184
aVstories
p3185
aVht
p3186
aVbloodlink
p3187
aVnulis
p3188
aVhi
p3189
aVplague
p3190
aVgain
p3191
aVbeat
p3192
aVremote
p3193
aVha
p3194
aVeat
p3195
aVcount
p3196
aVproverbs
p3197
aVmade
p3198
aVplumeria_eskull
p3199
aVwhether
p3200
aVwish
p3201
aVdxikd
p3202
aVofficial
p3203
aVsigned
p3204
aVrecord
p3205
aVshield..
p3206
aVpikavoca_aus
p3207
aVdemonstrate
p3208
aVproblem
p3209
aVdsseldorf
p3210
aVsponsor
p3211
aVvlogging
p3212
aVirish
p3213
aV/r/funny
p3214
aVnike+
p3215
aVint
p3216
aVpachett
p3217
aVahrq
p3218
aVshutting
p3219
aVbeats
p3220
aVkyrachucks
p3221
aVcurtian
p3222
aVcommentators
p3223
aVshooting
p3224
aVhappen
p3225
aV2582
p3226
aVnariz-ok
p3227
aVnacen
p3228
aV'll
p3229
aV48
p3230
aVdeadly
p3231
aVindividual
p3232
aVpercent
p3233
aVkurus
p3234
aVlately
p3235
aV4.
p3236
aVnhs
p3237
aVbook
p3238
aVes
p3239
aVsick
p3240
aVconclusion
p3241
aVfrancisco
p3242
aVmonday
p3243
aVkeep
p3244
aVclass
p3245
aVswarup58
p3246
aVstay
p3247
aVchance
p3248
aVstab
p3249
aVkeriiscool11
p3250
aVbodachious
p3251
aV24,000
p3252
aVbadass
p3253
aVqu'on
p3254
aVfriends
p3255
aVdinklage
p3256
aVdolphins
p3257
aVrambla
p3258
aVsalt_shaker733
p3259
aVbc
p3260
aVcoherent
p3261
aVextrao
p3262
aVuhhh
p3263
aVlift
p3264
aVsepponet
p3265
aVchiming
p3266
aVf77
p3267
atp3268
Rp3269
.