c__builtin__
set
p0
((lp1
(V''
p2
Vwaitwhat
p3
tp4
a(Vunambiguous
p5
Vstatement
p6
tp7
a(V's
p8
Valways
p9
tp10
a(Vdaughter
p11
Vgazes
p12
tp13
a(Vike/soren
p14
Vconvo
p15
tp16
a(Vlas
p17
Vvegas
p18
tp19
a(Vbest
p20
Vfriend
p21
tp22
a(Vnext
p23
Vweek
p24
tp25
a(Vmoney
p26
Vmakes
p27
tp28
a(Vrgiii
p29
Vwife
p30
tp31
a(Vthought
p32
V...
p33
tp34
a(Vaxe
p35
Vwaitwhat
p36
tp37
a(Vhuman
p38
Vrights
p39
tp40
a(Vnever
p41
Vgets
p42
tp43
a(Vmoral
p44
Vcourage
p45
tp46
a(Vstreet
p47
Vpapers
p48
tp49
a(Vdamn
p50
Vson
p51
tp52
a(Vunreleased
p53
Vsong
p54
tp55
a(Veagles
p56
Vwin
p57
tp58
a(Vcastle
p59
Voblivion
p60
tp61
a(Vpaper
p62
Vbeats
p63
tp64
a(Vlooked
p65
Vlike
p66
tp67
a(Vn't
p68
Vmake
p69
tp70
a(Vfree
p71
Vstuff
p72
tp73
a(V've
p74
Vdated
p75
tp76
a(Vunambiguous
p77
Vshow
p78
tp79
a(V7.80
p80
Vmi
p81
tp82
a(Vunambiguous
p83
Vnun
p84
tp85
a(Vtutu
p86
Vpour
p87
tp88
a(Vcooks
p89
Vneeds
p90
tp91
a(Vtruely
p92
Vdesire
p93
tp94
a(Vgot
p95
Vta
p96
tp97
a(Vmassive
p98
Verror
p99
tp100
a(Vmanager
p101
Vfernando
p102
tp103
a(Vyeah
p104
Vwolverine
p105
tp106
a(Vstrip
p107
Vcitizenship
p108
tp109
a(Vbirthday
p110
Vdude
p111
tp112
a(V5k
p113
Vcon
p114
tp115
a(Vnov
p116
Vamsterdam
p117
tp118
a(Vmuch
p119
Vmay
p120
tp121
a(Vboy
p122
Vnames
p123
tp124
a(Vkryptoleith
p125
Vlooool
p126
tp127
a(V's
p128
V...
p129
tp130
a(Vcustomer
p131
V'doable
p132
tp133
a(Vamaricooper9
p134
Vconnect
p135
tp136
a(Vbrexit
p137
Vreferendum
p138
tp139
a(Vlive
p140
Vwithout
p141
tp142
a(Vtyler
p143
Vjoseph
p144
tp145
a(Veurobriefing
p146
Vmakes
p147
tp148
a(Vamid
p149
Vchange
p150
tp151
a(Vgood
p152
Vdefense
p153
tp154
a(Vgia_carbajal
p155
Vwaitwhat
p156
tp157
a(Vj'y
p158
Vvais
p159
tp160
a(Vsix
p161
V20
p162
tp163
a(Vsong
p164
Vrather
p165
tp166
a(Vsymbols
p167
Vwritten
p168
tp169
a(V'm
p170
Vsingle
p171
tp172
a(Vlove
p173
Vniggas
p174
tp175
a(Vtalk
p176
Vradio
p177
tp178
a(Vhematology
p179
Vfeatures
p180
tp181
a(Vtea
p182
Vleaves
p183
tp184
a(Vbee
p185
Vmess
p186
tp187
a(Vahahaha
p188
Voh
p189
tp190
a(V4.00
p191
Vmi
p192
tp193
a(V4.04
p194
Vmi
p195
tp196
a(Vnew
p197
Vlow
p198
tp199
a(Vkevin_nxi
p200
Vah
p201
tp202
a(Vpour
p203
Vl'info
p204
tp205
a(Vdear
p206
Vlord
p207
tp208
a(Vconfidence
p209
Vback
p210
tp211
a(Vradverkehr-freundliche
p212
Vsichere
p213
tp214
a(Vasian
p215
Vgirls
p216
tp217
a(Vur
p218
Vname
p219
tp220
a(Vfeto
p221
Vorchestrated
p222
tp223
a(Vran
p224
V7.31
p225
tp226
a(V``
p227
Vcorrecting
p228
tp229
a(Vcopies
p230
Vdoubles
p231
tp232
a(Vprospects
p233
Veven
p234
tp235
a(Vgame
p236
Vday
p237
tp238
a(Vorganic
p239
Vlearning
p240
tp241
a(Vtake
p242
Vadvantage
p243
tp244
a(Vvais
p245
Vnue
p246
tp247
a(Vhughes
p248
Vstraight-up
p249
tp250
a(Vdr.sahab
p251
V's
p252
tp253
a(Vusa
p254
Vw/
p255
tp256
a(Vfish
p257
V''
p258
tp259
a(Vmain
p260
Vnews
p261
tp262
a(Vactually
p263
Vmean
p264
tp265
a(Vlib
p266
Vdem
p267
tp268
a(Vmaple
p269
Vleafs
p270
tp271
a(g204
Vmais
p272
tp273
a(Vflag
p274
Vburning
p275
tp276
a(Vspotswoode
p277
Vneil
p278
tp279
a(g87
Vce
p280
tp281
a(Vpewdiepie
p282
Vwaitwhat
p283
tp284
a(Vsr
p285
Vce
p286
tp287
a(Vbeats
p288
Vhorse
p289
tp290
a(Vsaid
p291
Vtheres
p292
tp293
a(Vcommunist
p294
Vnetwork
p295
tp296
a(V's
p297
Vmaking
p298
tp299
a(Vemt
p300
Vsmoking
p301
tp302
a(Vwaitwhat
p303
Vnuuuu
p304
tp305
a(Vguy
p306
Vstuff
p307
tp308
a(Vworded
p309
Vunambiguous
p310
tp311
a(Vnew
p312
Vbrand
p313
tp314
a(Vjob
p315
Vsaints
p316
tp317
a(Vsinging
p318
Vchristmas
p319
tp320
a(Vdad
p321
V's
p322
tp323
a(Vle
p324
Vau
p325
tp326
a(V3.01
p327
Vmi
p328
tp329
a(Vel
p330
Vda
p331
tp332
a(Vkept
p333
Vpenn
p334
tp335
a(Vrelationsh
p336
V...
p337
tp338
a(Vburn
p339
Vamerican
p340
tp341
a(Vnsfw
p342
Vxd
p343
tp344
a(Vworking
p345
Vlol
p346
tp347
a(Vstarts
p348
Vmake
p349
tp350
a(Vpacific
p351
Vheat
p352
tp353
a(Vlaw
p354
Vhaha
p355
tp356
a(Vvs.
p357
Vreligion
p358
tp359
a(Valmost
p360
Vphysical
p361
tp362
a(V...
p363
Vkeep
p364
tp365
a(Vwhole
p366
Vnew
p367
tp368
a(g340
Vflags
p369
tp370
a(Virish
p371
Vwater
p372
tp373
a(Vmake
p374
Vtrump
p375
tp376
a(Vmiss
p377
Vporter
p378
tp379
a(Vkeep
p380
Vwatchin
p381
tp382
a(Vsmalls
p383
V...
p384
tp385
a(V'm
p386
Vfr
p387
tp388
a(Vpocketknives
p389
Vandsheriff
p390
tp391
a(Velectoral
p392
Vcollege
p393
tp394
a(Vannouncing
p395
Vpolicy
p396
tp397
a(Vbest
p398
Vnetwork
p399
tp400
a(Vran
p401
V5.01
p402
tp403
a(Vphilrowen
p404
Vwaitwhat
p405
tp406
a(Vran
p407
V4.99
p408
tp409
a(Vtalking
p410
Vsmack
p411
tp412
a(Vgoals=
p413
Vpeople
p414
tp415
a(Vdaily
p416
Vgoal
p417
tp418
a(Vsis
p419
Vgame
p420
tp421
a(Vcelebration
p422
Vpark
p423
tp424
a(Vass
p425
Vbetter
p426
tp427
a(Vfrench
p428
Vtoast
p429
tp430
a(Vhella
p431
Vconfused
p432
tp433
a(Vwarehouse
p434
Vblaze
p435
tp436
a(Vfirst
p437
Vpicture
p438
tp439
a(Vabdullah
p440
Vbased
p441
tp442
a(Vnormal
p443
g306
tp444
a(Vcompletely
p445
Vunambiguous
p446
tp447
a(Vchief
p448
Vforeign
p449
tp450
a(Vback
p451
Vinstead
p452
tp453
a(Vprovo
p454
V22*
p455
tp456
a(Vsay
p457
Vwait
p458
tp459
a(Vim
p460
Vsorries
p461
tp462
a(Vtan
p463
Vlines
p464
tp465
a(V'd
p466
Vsay
p467
tp468
a(V3.
p469
Vgetting
p470
tp471
a(Vduh
p472
Vaaaaaaalcuhh
p473
tp474
a(V'm
p475
Vgeez
p476
tp477
a(Vsupporting
p478
Vcast
p479
tp480
a(Vlike
p481
Vlachy
p482
tp483
a(V's
p484
Vunacceptable
p485
tp486
a(Voutdoors
p487
Vtake
p488
tp489
a(Vlardarius
p490
Vwebb
p491
tp492
a(Vboxers
p493
Ve
p494
tp495
a(Vbrands
p496
Vclothing
p497
tp498
a(Vnorth
p499
Vamerica
p500
tp501
a(Vn't
p502
Vbelieve
p503
tp504
a(Vvoted
p505
Vremain
p506
tp507
a(V15
p508
Vpage
p509
tp510
a(Vever
p511
Vsee
p512
tp513
a(Vokay
p514
Vson
p515
tp516
a(Vscratches
p517
Vhead
p518
tp519
a(Vreally
p520
Vbelieve
p521
tp522
a(Vblog
p523
Vpost
p524
tp525
a(Vran
p526
V26.75
p527
tp528
a(Vpotential
p529
Vpick
p530
tp531
a(Vrelated
p532
Vdecisions
p533
tp534
a(Val
p535
Vda
p536
tp537
a(Vop
p538
Vde
p539
tp540
a(Vcriss
p541
Vcharms
p542
tp543
a(Vlate
p544
Vfacemask
p545
tp546
a(Vchristmas
p547
V...
p548
tp549
a(Vstop
p550
Vprocrastinating
p551
tp552
a(V'no
p553
Vcaffeine
p554
tp555
a(Vcar
p556
Vbien
p557
tp558
a(Verror
p559
Vgarrafal
p560
tp561
a(Vn't
p562
Vthink
p563
tp564
a(Vstill
p565
Vlead
p566
tp567
a(Vdecember
p568
V16th
p569
tp570
a(Vguy
p571
V's
p572
tp573
a(Vaprs
p574
Vc'est
p575
tp576
a(Vfrankie_morgan1
p577
Vlol
p578
tp579
a(Vstill
p580
Vloves
p581
tp582
a(Vpoltamme
p583
Vturvetta
p584
tp585
a(Vn't
p586
Vlast
p587
tp588
a(Vpoco
p589
Vde
p590
tp591
a(Vhot
p592
Vguy
p593
tp594
a(Vsounds
p595
Vlike
p596
tp597
a(Vj
p598
Vcole
p599
tp600
a(Vdespicable
p601
Vattack
p602
tp603
a(V'll
p604
Vbend
p605
tp606
a(Vbikini
p607
Vgirl
p608
tp609
a(Vman
p610
Vgives
p611
tp612
a(Vman
p613
V...
p614
tp615
a(Vwaiting
p616
Vroom
p617
tp618
a(V8
p619
Vmiles
p620
tp621
a(Vliberty_trump
p622
Vstatement
p623
tp624
a(V...
p625
Vwaitwhat
p626
tp627
a(Vroot_dev_0
p628
Vfak
p629
tp630
a(Vstill
p631
Vget
p632
tp633
a(Vzillow
p634
V...
p635
tp636
a(Vanyone
p637
Vaside
p638
tp639
a(Vmash-up
p640
Vjersey
p641
tp642
a(Vfollowing
p643
Vwait
p644
tp645
a(Vtuesday
p646
Vlike
p647
tp648
a(Vla
p649
Vrambla
p650
tp651
a(V's
p652
Ventirely
p653
tp654
a(Vpage
p655
Vnew
p656
tp657
a(Vmfs
p658
Vnever
p659
tp660
a(Vtouuuuchhhdoowwnnnn
p661
Vraaaaiiiidderrrs
p662
tp663
a(Vhomeless
p664
Vorphan
p665
tp666
a(Vporn
p667
Vresults
p668
tp669
a(V``
p670
Vstmxrk
p671
tp672
a(Vheather
p673
Vmclean
p674
tp675
a(Vbeautiful
p676
Vday
p677
tp678
a(Vpatrz
p679
Vna
p680
tp681
a(V'm
p682
Vperplexed
p683
tp684
a(Vwithout
p685
Vcharges
p686
tp687
a(Vstay
p688
Vstrong
p689
tp690
a(Vdecember
p691
Vmorning
p692
tp693
a(Vreapers
p694
Vfavourite
p695
tp696
a(Vstaat
p697
g538
tp698
a(Vthatgirlravenn
p699
Vlol
p700
tp701
a(Vontura
p702
V's
p703
tp704
a(Vmigos
p705
Vy'all
p706
tp707
a(Vsix-game
p708
Vwin
p709
tp710
a(Vsarah
p711
Vthomas
p712
tp713
a(Vwatson
p714
Vwldve
p715
tp716
a(Vb
p717
Vright
p718
tp719
a(Vfeel
p720
Vnervous
p721
tp722
a(Vtrade
p723
Vintendment
p724
tp725
a(Vu
p726
Vwatching
p727
tp728
a(Vunambiguous
p729
V''
p730
tp731
a(Vwelcome
p732
Vvideo
p733
tp734
a(Vopening
p735
Vsketch
p736
tp737
a(Vmight
p738
Vget
p739
tp740
a(V'll
p741
Veat
p742
tp743
a(Vplank
p744
Vunambiguous
p745
tp746
a(Vnew
p747
Vshirt
p748
tp749
a(Vbells
p750
Vringing
p751
tp752
a(Vcomplaining
p753
Vreally
p754
tp755
a(Vthings
p756
Vlike
p757
tp758
a(Vold
p759
Vman
p760
tp761
a(V'd
p762
Vlike
p763
tp764
a(Vblame
p765
Vhaha
p766
tp767
a(V'm
p768
Vone
p769
tp770
a(Vdaddy
p771
V...
p772
tp773
a(Vproves
p774
g251
tp775
a(Vtrump
p776
Vimmediately
p777
tp778
a(Vgot
p779
Vslapped
p780
tp781
a(V's
p782
Vfirst
p783
tp784
a(Vn't
p785
Vneed
p786
tp787
a(Vlife
p788
V's
p789
tp790
a(V's
p791
Vtwitter
p792
tp793
a(Vbotanical
p794
Vlights
p795
tp796
a(Vnext
p797
Vgame
p798
tp799
a(Vvia
p800
Vwaitwhat_tv
p801
tp802
a(Vray
p803
V's
p804
tp805
a(Vann
p806
Vprachett
p807
tp808
a(Vthroughout
p809
Vnetflix
p810
tp811
a(Vya
p812
Vlife
p813
tp814
a(Vlooks
p815
Vlike
p816
tp817
a(Vhymn
p818
Vtoday
p819
tp820
a(V''
p821
Vloll
p822
tp823
a(V17
p824
Vyears
p825
tp826
a(Vn't
p827
Vforce
p828
tp829
a(Vtheee
p830
Vsoul
p831
tp832
a(Vhardly
p833
Vever
p834
tp835
a(Vboi
p836
Vcame
p837
tp838
a(Vunambiguous
p839
Vmeaning
p840
tp841
a(Vsister
p842
V's
p843
tp844
a(Vtrees
p845
V...
p846
tp847
a(Vest
p848
Vdessus
p849
tp850
a(Vmain
p851
Vman
p852
tp853
a(Vfrench
p854
Vclique
p855
tp856
a(Vtop
p857
g233
tp858
a(Vahrq
p859
Vanyways
p860
tp861
a(Vsing
p862
V''
p863
tp864
a(Vpolicy
p865
g744
tp866
a(Vmeans
p867
V...
p868
tp869
a(Vmarquei
p870
Vcomo
p871
tp872
a(Vwhite
p873
Vkid
p874
tp875
a(Vunhealthy
p876
Vppl
p877
tp878
a(Vowo
p879
Vnigga
p880
tp881
a(Vcongratulates
p882
Vtom
p883
tp884
a(g18
V...
p885
tp886
a(Vcant
p887
g862
tp888
a(Vmental
p889
Vhealth
p890
tp891
a(Vaww
p892
Vman
p893
tp894
a(V''
p895
Vtype
p896
tp897
a(V55
p898
Vstores..
p899
tp900
a(Vmakes
p901
Vaccountability
p902
tp903
a(Vsoft-hard
p904
Vbrexit
p905
tp906
a(Vwould
p907
Vhappen
p908
tp909
a(Vdecember
p910
V3rd
p911
tp912
a(Vguy
p913
Vw
p914
tp915
a(V``
p916
Vwaitwhat
p917
tp918
a(Vtrump
p919
g791
tp920
a(Voriginal
p921
Vversion
p922
tp923
a(Vchris
p924
Vpennie
p925
tp926
a(g783
Vfemale
p927
tp928
a(Vmusic
p929
Vvideos
p930
tp931
a(Verhan
p932
Vkarlidag
p933
tp934
a(V's
p935
Vuglier
p936
tp937
a(Vcucumbers..
p938
Vpickles
p939
tp940
a(Vquand
p941
Vj'arrive
p942
tp943
a(Vnike+
p944
Vrun
p945
tp946
a(Vopen
p947
Vlol
p948
tp949
a(Vta
p950
Vmre
p951
tp952
a(Vactual
p953
Vhell
p954
tp955
a(Vunambiguous
p956
Vpillhead
p957
tp958
a(Vlike
p959
Vtaco
p960
tp961
a(Vsenators/team
p962
g499
tp963
a(Vclearly
p964
g309
tp965
a(Vuse
p966
Vdata
p967
tp968
a(Velectoral
p969
Vreform
p970
tp971
a(Vqueenofrider
p972
Vwaitwhat
p973
tp974
a(Vdone
p975
Vsarah
p976
tp977
a(Vzero
p978
V--
p979
tp980
a(Vway
p981
V...
p982
tp983
a(V2
p984
V...
p985
tp986
a(Vleur
p987
Vaxe
p988
tp989
a(Vmasato_starish
p990
V...
p991
tp992
a(V'til
p993
Vwindermere
p994
tp995
a(Vnever
p996
Vwant
p997
tp998
a(Vfamily
p999
Vtoday
p1000
tp1001
a(Vgame
p1002
Vwould
p1003
tp1004
a(Vpara
p1005
Vconocer
p1006
tp1007
a(Vyear
p1008
Vold
p1009
tp1010
a(V's
p1011
Vann
p1012
tp1013
a(g225
Vmi
p1014
tp1015
a(Vgood
p1016
Vnewses
p1017
tp1018
a(Vsparf
p1019
Vwaitwhat
p1020
tp1021
a(g334
Vstate
p1022
tp1023
a(Vselfish
p1024
Vfucks
p1025
tp1026
a(Vc
p1027
g451
tp1028
a(Vwaitwhat
p1029
Vcommissions
p1030
tp1031
a(Vgo
p1032
Vaway
p1033
tp1034
a(Vscotus
p1035
Vwo
p1036
tp1037
a(g724
Vjail
p1038
tp1039
a(Vmain
p1040
Vunambiguous
p1041
tp1042
a(Vcar
p1043
V...
p1044
tp1045
a(Vwould
p1046
Vagree
p1047
tp1048
a(Vconsistently
p1049
Vwets
p1050
tp1051
a(Vlast
p1052
Vtime
p1053
tp1054
a(Vcommentators
p1055
Vliterally
p1056
tp1057
a(Vhoney
p1058
V...
p1059
tp1060
a(Vgreat
p1061
Vmems
p1062
tp1063
a(Vevery
p1064
Vseason
p1065
tp1066
a(Vtouchdown
p1067
Vmcleod
p1068
tp1069
a(g726
Vhelp
p1070
tp1071
a(Vbest
p1072
Vslogan
p1073
tp1074
a(V``
p1075
Vprotgez-vous
p1076
tp1077
a(Vgod
p1078
Vet
p1079
tp1080
a(Vused
p1081
V``
p1082
tp1083
a(V``
p1084
Vthreatens
p1085
tp1086
a(Vpas
p1087
V...
p1088
tp1089
a(Vrun
p1090
Vdanny
p1091
tp1092
a(Vgoogle
p1093
Vad
p1094
tp1095
a(g57
V31-29
p1096
tp1097
a(Vclock
p1098
Vtower
p1099
tp1100
a(g1012
Vpachett
p1101
tp1102
a(V5
p1103
Vsmall
p1104
tp1105
a(Vbaby
p1106
Vginger
p1107
tp1108
a(Vyoung
p1109
Vvoters
p1110
tp1111
a(V``
p1112
Vwell
p1113
tp1114
a(Vbrees
p1115
Vforcing
p1116
tp1117
a(Vn't
p1118
Vvote
p1119
tp1120
a(g168
Vspeech
p1121
tp1122
a(Vfree
p1123
Vreg
p1124
tp1125
a(Vreads
p1126
Vinternet
p1127
tp1128
a(Vtags
p1129
Vadded
p1130
tp1131
a(Vhair
p1132
Vreplacement
p1133
tp1134
a(Vda
p1135
Varchives
p1136
tp1137
a(Vrealdonaldtrump
p1138
Vmitt
p1139
tp1140
a(g261
V...
p1141
tp1142
a(Vpreempt
p1143
Vmedia
p1144
tp1145
a(g1082
g410
tp1146
a(Vice
p1147
Vcream*
p1148
tp1149
a(Vtvg
p1150
V...
p1151
tp1152
a(Vcant
p1153
Vuse
p1154
tp1155
a(V``
p1156
Vstudy
p1157
tp1158
a(g500
g640
tp1159
a(Vadolphsonracing
p1160
Vwaitwhat
p1161
tp1162
a(g123
Vbc
p1163
tp1164
a(V3.13
p1165
Vmi
p1166
tp1167
a(V's
p1168
Vperforming
p1169
tp1170
a(Vcase
p1171
Vregistered
p1172
tp1173
a(Vpersonajes
p1174
Vdc
p1175
tp1176
a(Vpeople
p1177
Vaccept
p1178
tp1179
a(g310
Vdirectives
p1180
tp1181
a(Vclerical
p1182
Verror
p1183
tp1184
a(Vvamos
p1185
Vpor
p1186
tp1187
a(V7.23
p1188
Vmi
p1189
tp1190
a(Vyuri
p1191
V's
p1192
tp1193
a(Vwould
p1194
Valso
p1195
tp1196
a(Vthink
p1197
Vlebron
p1198
tp1199
a(Vitschiddy
p1200
g454
tp1201
a(Vcoherent
p1202
Vtheology
p1203
tp1204
a(Vmiketobinfox
p1205
Vyup
p1206
tp1207
a(Vgood
p1208
g363
tp1209
a(Vwins
p1210
Vever
p1211
tp1212
a(Vreferendum
p1213
Vresult
p1214
tp1215
a(Vcatch
p1216
Vsomeone
p1217
tp1218
a(Vrealdonaldtrump
p1219
Voh
p1220
tp1221
a(Vfeeling
p1222
Vlike
p1223
tp1224
a(Vna
p1225
Vbazar
p1226
tp1227
a(Vmultiple
p1228
Vthoughts
p1229
tp1230
a(Vmaking
p1231
Vmountain
p1232
tp1233
a(Vkinda
p1234
Vconfusing.wait
p1235
tp1236
a(Vdonc
p1237
Vimotep
p1238
tp1239
a(Vunambiguous
p1240
Vattack
p1241
tp1242
a(V''
p1243
Vlablayp
p1244
tp1245
a(Vsparks
p1246
Vmovie
p1247
tp1248
a(Vcryinggggggg
p1249
Vlmfaooooo
p1250
tp1251
a(g1247
Vdipped
p1252
tp1253
a(Vkeep
p1254
Vgoing
p1255
tp1256
a(Vphilly
p1257
g176
tp1258
a(g619
Vday
p1259
tp1260
a(g709
Vstreak
p1261
tp1262
a(Vreferee
p1263
g711
tp1264
a(Valso
p1265
Vunambiguous
p1266
tp1267
a(V's
p1268
Vdawn
p1269
tp1270
a(Vanother
p1271
Vmoment
p1272
tp1273
a(Vdolphins
p1274
V6
p1275
tp1276
a(Vstay
p1277
Vmotivated
p1278
tp1279
a(Vlittle
p1280
Vthrowback
p1281
tp1282
a(Vunambiguous
p1283
Vunderstating
p1284
tp1285
a(Vfoxnews
p1286
Vmr
p1287
tp1288
a(Vclub
p1289
V``
p1290
tp1291
a(Vparle
p1292
Vmme
p1293
tp1294
a(V're
p1295
Vwatching
p1296
tp1297
a(Vsomeone
p1298
Vconcerned
p1299
tp1300
a(Vmountain
p1301
V...
p1302
tp1303
a(Vunambiguous
p1304
Vease
p1305
tp1306
a(Vadjective
p1307
Vleaving
p1308
tp1309
a(V10
p1310
Vgames
p1311
tp1312
a(Vwould
p1313
Vrather
p1314
tp1315
a(Vwould
p1316
Vlove
p1317
tp1318
a(Vn't
p1319
Vpresent
p1320
tp1321
a(Vbanning
p1322
Vmuslims
p1323
tp1324
a(Vaussie
p1325
Vland
p1326
tp1327
a(Vstart
p1328
Vbuy
p1329
tp1330
a(Vran
p1331
g191
tp1332
a(Vne
p1333
Vpilts
p1334
tp1335
a(Vn't
p1336
Vborn
p1337
tp1338
a(Vlast
p1339
Vday
p1340
tp1341
a(Vunambiguous
p1342
Vmelody
p1343
tp1344
a(Vempezando
p1345
g330
tp1346
a(g1119
Vleave
p1347
tp1348
a(Vschool
p1349
Vprofessor
p1350
tp1351
a(V2387
p1352
Vjoin
p1353
tp1354
a(V2016
p1355
Vwuppertal
p1356
tp1357
a(g1091
Vrun
p1358
tp1359
a(Vmi
p1360
Ven
p1361
tp1362
a(Vteam
p1363
V's
p1364
tp1365
a(g234
Vtrading
p1366
tp1367
a(Vk
p1368
Vthx
p1369
tp1370
a(Vsen
p1371
Vtakia
p1372
tp1373
a(Ven
p1374
Vclasse
p1375
tp1376
a(Vpeople
p1377
V's
p1378
tp1379
a(Vkids
p1380
Vslipping
p1381
tp1382
a(Vcarbon
p1383
Vtaxes
p1384
tp1385
a(g30
Vreally
p1386
tp1387
a(Vjour
p1388
V90
p1389
tp1390
a(Vmai
p1391
Vhun
p1392
tp1393
a(Vn't
p1394
Vget
p1395
tp1396
a(Vlistas
p1397
Vpara
p1398
tp1399
a(V2015
p1400
Vphoto
p1401
tp1402
a(Valex_32ita
p1403
Vwaitwhat
p1404
tp1405
a(Vrating
p1406
Veasy
p1407
tp1408
a(Vsalomonsaaret
p1409
Vvaivu
p1410
tp1411
a(Vmisma
p1412
Vescena
p1413
tp1414
a(Vdemeaning
p1415
Vspeeches
p1416
tp1417
a(Vstill
p1418
Voutline
p1419
tp1420
a(Vinner
p1421
Vsnooki
p1422
tp1423
a(Vran
p1424
g1188
tp1425
a(Vyday
p1426
V's
p1427
tp1428
a(Vguy
p1429
Vasked
p1430
tp1431
a(Vwould
p1432
g374
tp1433
a(Vlabour
p1434
V's
p1435
tp1436
a(g629
g726
tp1437
a(Vgon
p1438
Vna
p1439
tp1440
a(Vbig
p1441
Vthanks
p1442
tp1443
a(g1259
Vrain
p1444
tp1445
a(Vbeat
p1446
Vpropel
p1447
tp1448
a(V..just
p1449
Vuse
p1450
tp1451
a(Vunambiguous
p1452
Vstatistic
p1453
tp1454
a(Vspelling
p1455
g185
tp1456
a(Vmiketobinfox
p1457
Vfox
p1458
tp1459
a(Vhotter
p1460
Vguys
p1461
tp1462
a(Vtime
p1463
Vexpired
p1464
tp1465
a(Vretweeted
p1466
Vrashid
p1467
tp1468
a(Vstone
p1469
g1301
tp1470
a(Vaunts
p1471
Vmom
p1472
tp1473
a(Vquarto
p1474
Vdisparado
p1475
tp1476
a(Vlocks
p1477
V''
p1478
tp1479
a(Valpha
p1480
Vfraternity
p1481
tp1482
a(Vshopping
p1483
Vtoday
p1484
tp1485
a(g96
Vget
p1486
tp1487
a(V's
p1488
Vep
p1489
tp1490
a(Vnike
p1491
Vsponsor
p1492
tp1493
a(g590
Vcolor
p1494
tp1495
a(Vmine
p1496
V''
p1497
tp1498
a(Vnew
p1499
Vzealand
p1500
tp1501
a(Vhiking
p1502
g1469
tp1503
a(Vremain
p1504
Vpart
p1505
tp1506
a(Vaussi
p1507
Vdcadent
p1508
tp1509
a(g280
Vsoir
p1510
tp1511
a(Vbegadang
p1512
Vnulis
p1513
tp1514
a(Vgrab
p1515
Vcucumbers
p1516
tp1517
a(Vbeautiful
p1518
Vdread
p1519
tp1520
a(Vericbernardr
p1521
Vyeranding
p1522
tp1523
a(Vsiegfried
p1524
Vgoing
p1525
tp1526
a(Vtotally
p1527
Vunambi
p1528
tp1529
a(g843
Vnappy
p1530
tp1531
a(Vstate-penn
p1532
Vstate
p1533
tp1534
a(Vlittle
p1535
Vfun
p1536
tp1537
a(V'm
p1538
Vcomplicated
p1539
tp1540
a(V'm
p1541
Vamerica
p1542
tp1543
a(Vwaitwhat
p1544
Vreally
p1545
tp1546
a(Vab
p1547
Valmost
p1548
tp1549
a(Vfait
p1550
Vde
p1551
tp1552
a(Vbackfired
p1553
Vtoday
p1554
tp1555
a(Vgood
p1556
Vday
p1557
tp1558
a(Vun
p1559
g559
tp1560
a(Vwords
p1561
V...
p1562
tp1563
a(Vnihilego_edex
p1564
Vtrue
p1565
tp1566
a(Vbrexit
p1567
Vvoters
p1568
tp1569
a(Vshow
p1570
Vvia
p1571
tp1572
a(Vfirst
p1573
Vannual
p1574
tp1575
a(V``
p1576
Vtake
p1577
tp1578
a(Vnear
p1579
Vfree
p1580
tp1581
a(Vcomeback
p1582
Vbegins
p1583
tp1584
a(Vwhayshahah
p1585
Vlizas
p1586
tp1587
a(g939
Vbabe
p1588
tp1589
a(Vbinny
p1590
Vbansal
p1591
tp1592
a(Vvoted
p1593
g266
tp1594
a(Vnonantes
p1595
Vjours
p1596
tp1597
a(Vnotliketoast
p1598
Vmiss
p1599
tp1600
a(Vran
p1601
V13.30km
p1602
tp1603
a(Vde'aaron
p1604
Vfox
p1605
tp1606
a(V...
p1607
V.and
p1608
tp1609
a(Vcute
p1610
V''
p1611
tp1612
a(g754
g1553
tp1613
a(Vfavorite
p1614
Vquarterback
p1615
tp1616
a(V's
p1617
Vsilly
p1618
tp1619
a(Vsoftware
p1620
Vparce
p1621
tp1622
a(Vprice
p1623
Vnetwork
p1624
tp1625
a(g739
Vthrown
p1626
tp1627
a(V9
p1628
Vmins
p1629
tp1630
a(g680
Vscore.kocz
p1631
tp1632
a(Vreally
p1633
Vsuck
p1634
tp1635
a(Vgo
p1636
Vtogether
p1637
tp1638
a(Vstab
p1639
Vpeople
p1640
tp1641
a(Ventire
p1642
g824
tp1643
a(Vsont
p1644
Vles
p1645
tp1646
a(Vfucking
p1647
Vterrifyingly
p1648
tp1649
a(Vt'es
p1650
Vbien
p1651
tp1652
a(g1580
Vcoffee
p1653
tp1654
a(g539
Vlijst
p1655
tp1656
a(Vkid
p1657
g1126
tp1658
a(Vtrump
p1659
Vstates
p1660
tp1661
a(Vaustria
p1662
Vthing
p1663
tp1664
a(Valongside
p1665
Vus
p1666
tp1667
a(Vtronnorswild
p1668
g1544
tp1669
a(Vfirst
p1670
Vsight
p1671
tp1672
a(Vpeople
p1673
V''
p1674
tp1675
a(Vwall
p1676
Vbarehanded
p1677
tp1678
a(Vminseoktv
p1679
Vwaitwhat
p1680
tp1681
a(Vsomething
p1682
Vwrong
p1683
tp1684
a(Vusa
p1685
Vflag
p1686
tp1687
a(Vur
p1688
Vchannel
p1689
tp1690
a(Valso
p1691
Vproud
p1692
tp1693
a(V'm
p1694
Vofficially
p1695
tp1696
a(Vlike
p1697
Vmilk
p1698
tp1699
a(Vallahabad
p1700
Vcourt
p1701
tp1702
a(Vgeorgia
p1703
V..
p1704
tp1705
a(Vcanadiensmtl
p1706
Vworking
p1707
tp1708
a(Vsuomessa
p1709
g583
tp1710
a(V4th
p1711
Vq.
p1712
tp1713
a(Vnumber
p1714
Vone
p1715
tp1716
a(Vbrow*
p1717
Vlike
p1718
tp1719
a(Vlake
p1720
Vmedina
p1721
tp1722
a(Vlow
p1723
Vgrade
p1724
tp1725
a(Vvia
p1726
Vdecember
p1727
tp1728
a(Ves
p1729
g1559
tp1730
a(g1183
V''
p1731
tp1732
a(V's
p1733
Vreally
p1734
tp1735
a(Vseven
p1736
Vstorey
p1737
tp1738
a(Velizabethaneale
p1739
Vooooooooh
p1740
tp1741
a(g1631
Vgr.pisze.nagle
p1742
tp1743
a(Vreality
p1744
Vvia
p1745
tp1746
a(Vcause
p1747
V'they
p1748
tp1749
a(Vran
p1750
g327
tp1751
a(Vleave
p1752
Vagenda
p1753
tp1754
a(g114
Vel
p1755
tp1756
a(V35
p1757
Vfriday
p1758
tp1759
a(Vblaze
p1760
Vvia
p1761
tp1762
a(Vstop
p1763
Vposting
p1764
tp1765
a(Vvia
p1766
V2500
p1767
tp1768
a(Vlike
p1769
Vtrying
p1770
tp1771
a(g599
Vsong
p1772
tp1773
a(Vcreator
p1774
V's
p1775
tp1776
a(Vaaronnolannews
p1777
Vsays
p1778
tp1779
a(Vpas
p1780
g203
tp1781
a(Vhello
p1782
V2017
p1783
tp1784
a(V's
p1785
Vunambiguous
p1786
tp1787
a(Vdelta
p1788
Vsharm
p1789
tp1790
a(V's
p1791
Vworkout
p1792
tp1793
a(Vnew
p1794
Vcaller
p1795
tp1796
a(g587
Vone
p1797
tp1798
a(V12
p1799
Vmonths
p1800
tp1801
a(V's
p1802
Vminnesota
p1803
tp1804
a(Vanti
p1805
Vnational
p1806
tp1807
a(Vyea
p1808
V--
p1809
tp1810
a(Vclassic
p1811
Vlaptops
p1812
tp1813
a(Vtheyre
p1814
Vinappropriate
p1815
tp1816
a(Vdays
p1817
Vtoday
p1818
tp1819
a(Vstatement
p1820
V...
p1821
tp1822
a(Vunambiguous
p1823
Vquestion
p1824
tp1825
a(Vwaitwhat
p1826
g1585
tp1827
a(g1621
Vque
p1828
tp1829
a(Vsometime
p1830
V''
p1831
tp1832
a(Vrelative
p1833
Vnoise
p1834
tp1835
a(Vperfectly
p1836
Vexpresses
p1837
tp1838
a(Vwatch
p1839
Vem
p1840
tp1841
a(Vft.
p1842
Vanjulie
p1843
tp1844
a(Vclear
p1845
Vunambiguous
p1846
tp1847
a(Vkilled
p1848
Vblack
p1849
tp1850
a(Vnames
p1851
Vtiana
p1852
tp1853
a(Vmenya
p1854
g1225
tp1855
a(Vde
p1856
g950
tp1857
a(Vcrabtree
p1858
V...
p1859
tp1860
a(Vlil
p1861
g419
tp1862
a(Vdownload
p1863
g670
tp1864
a(Vsister
p1865
Vliterally
p1866
tp1867
a(Vwaitwhat
p1868
Vhappens
p1869
tp1870
a(Vde
p1871
g493
tp1872
a(Vinside
p1873
Vwr
p1874
tp1875
a(V're
p1876
Vmade
p1877
tp1878
a(g748
g1836
tp1879
a(Vcastro
p1880
Vdies
p1881
tp1882
a(Vavoid
p1883
Vambiguity
p1884
tp1885
a(Vlike
p1886
Vleft
p1887
tp1888
a(V.be
p1889
Vnaughty
p1890
tp1891
a(Vfollowed
p1892
Vquickly
p1893
tp1894
a(Vn't
p1895
Vstay
p1896
tp1897
a(Vtryna
p1898
Vfind
p1899
tp1900
a(Vravens
p1901
V38
p1902
tp1903
a(V'll
p1904
Veven
p1905
tp1906
a(g322
Vresponse
p1907
tp1908
a(Vcomfortable
p1909
Vpunching
p1910
tp1911
a(Vpresident
p1912
Velect
p1913
tp1914
a(Vrellytstro22
p1915
Vpreciate
p1916
tp1917
a(Voakland
p1918
Vvia
p1919
tp1920
a(Vnike
p1921
Vmagic
p1922
tp1923
a(V'let
p1924
V's
p1925
tp1926
a(Vvote
p1927
Vgoes
p1928
tp1929
a(Vspend
p1930
Vloads
p1931
tp1932
a(Vbjswholesale
p1933
Vpays
p1934
tp1935
a(Vloooong
p1936
Vlooong
p1937
tp1938
a(Vmust
p1939
Varm
p1940
tp1941
a(V``
p1942
Vr
p1943
tp1944
a(Vunambiguous
p1945
Vlesson
p1946
tp1947
a(Vmeaningful
p1948
V''
p1949
tp1950
a(Vnext
p1951
Velection
p1952
tp1953
a(Vgot
p1954
Vmail
p1955
tp1956
a(Vliterallyallen
p1957
Vwaitwhat
p1958
tp1959
a(Vcnn
p1960
Vcnn
p1961
tp1962
a(Vcity
p1963
V...
p1964
tp1965
a(Vn't
p1966
Vwaitwhat
p1967
tp1968
a(g883
Vbrady
p1969
tp1970
a(Vbigger
p1971
Vderp
p1972
tp1973
a(Vfinally
p1974
Vannounce
p1975
tp1976
a(V're
p1977
Vkilling
p1978
tp1979
a(Vnell
p1980
g248
tp1981
a(g473
g517
tp1982
a(Vfield
p1983
Vquick
p1984
tp1985
a(Vcentral
p1986
Vpark
p1987
tp1988
a(Vn't
p1989
Vwant
p1990
tp1991
a(g1615
Vreally
p1992
tp1993
a(Vit-
p1994
Vwaitwhat
p1995
tp1996
a(Vplayer
p1997
Vreleased
p1998
tp1999
a(Vvs
p2000
Vlouisville
p2001
tp2002
a(Vvisual
p2003
Vlearning
p2004
tp2005
a(Vdeep
p2006
Vbreath
p2007
tp2008
a(Vreally
p2009
Vlove
p2010
tp2011
a(Vassign
p2012
Vtwitter
p2013
tp2014
a(Vexposing
p2015
Vscientology
p2016
tp2017
a(V's
p2018
Vtwo
p2019
tp2020
a(Vspend
p2021
Vtime
p2022
tp2023
a(Vdifferent
p2024
Vyoutubers
p2025
tp2026
a(g715
Vcaught
p2027
tp2028
a(Vnew
p2029
Vhope
p2030
tp2031
a(Vmatteorenzi
p2032
Vstfu
p2033
tp2034
a(Vpeter
p2035
Vdinklage
p2036
tp2037
a(Vmocha
p2038
Vfrapp
p2039
tp2040
a(Vmurraynewlands
p2041
Vwow
p2042
tp2043
a(Vcornell
p2044
Vuniversity
p2045
tp2046
a(Vcoming
p2047
Vtogether
p2048
tp2049
a(Vdoctor
p2050
Vaway
p2051
tp2052
a(Vschool
p2053
Vkind
p2054
tp2055
a(g2001
V...
p2056
tp2057
a(Vartist
p2058
g1620
tp2059
a(Vevery
p2060
Vtime
p2061
tp2062
a(Vmorning
p2063
g1268
tp2064
a(Vred
p2065
Vfam
p2066
tp2067
a(V3.28
p2068
Vmi
p2069
tp2070
a(Vnothing
p2071
Vgot
p2072
tp2073
a(V15
p2074
g116
tp2075
a(Vwide
p2076
Vopen
p2077
tp2078
a(Vattempted
p2079
Vcover
p2080
tp2081
a(Vproverbs
p2082
V3
p2083
tp2084
a(Vwolves
p2085
Vtied
p2086
tp2087
a(Vtmobile
p2088
Vdeals
p2089
tp2090
a(Vculture
p2091
g357
tp2092
a(Vcst
p2093
V//
p2094
tp2095
a(V...
p2096
V..
p2097
tp2098
a(Vedinburgh
p2099
g794
tp2100
a(Vvegan
p2101
g428
tp2102
a(g402
Vmi
p2103
tp2104
a(Vtomorrow
p2105
V..
p2106
tp2107
a(Vmight
p2108
V've
p2109
tp2110
a(Vn't
p2111
Vforget
p2112
tp2113
a(Vn't
p2114
Vchase
p2115
tp2116
a(Vtop
p2117
Vthree
p2118
tp2119
a(V12
p2120
Vplayoff
p2121
tp2122
a(Vthy
p2123
Vsales
p2124
tp2125
a(Vsecret
p2126
g14
tp2127
a(Vfire
p2128
g776
tp2129
a(Vmayor
p2130
Vparte
p2131
tp2132
a(Vmany
p2133
Vmissing
p2134
tp2135
a(Vtaking
p2136
Vcare
p2137
tp2138
a(Vintolerable
p2139
Vstatues
p2140
tp2141
a(g2045
V's
p2142
tp2143
a(V''
p2144
Vreally
p2145
tp2146
a(Vget
p2147
Vlitty
p2148
tp2149
a(Vobviously
p2150
Vwork
p2151
tp2152
a(Vthine
p2153
g179
tp2154
a(Vuncomfortable
p2155
Vthing
p2156
tp2157
a(Vgenuinely
p2158
Vmeaningful
p2159
tp2160
a(Vcheat
p2161
Vcodes
p2162
tp2163
a(Vnum
p2164
g1474
tp2165
a(Vunambiguous.a
p2166
Vcoalition
p2167
tp2168
a(Vreally
p2169
Vtry
p2170
tp2171
a(Vreally
p2172
Vbothered
p2173
tp2174
a(Vfeinsteinssf
p2175
g1570
tp2176
a(g1293
g1087
tp2177
a(Vevery
p2178
g592
tp2179
a(V're
p2180
Varguing
p2181
tp2182
a(Vvia
p2183
Vdavid
p2184
tp2185
a(V2582
p2186
Vjoin
p2187
tp2188
a(Vcould
p2189
Vmisunderstand
p2190
tp2191
a(Vgone
p2192
Vstop
p2193
tp2194
a(Vnfl
p2195
Vhistory
p2196
tp2197
a(Vbirthday
p2198
Vweekend
p2199
tp2200
a(Vkc_in_nyc
p2201
Valso
p2202
tp2203
a(Vmarvel
p2204
Ven
p2205
tp2206
a(Vstill
p2207
Vgood
p2208
tp2209
a(V's
p2210
Vofficial
p2211
tp2212
a(Vcustom
p2213
Vbottle
p2214
tp2215
a(Vmakin
p2216
Vsouvenir
p2217
tp2218
a(Veither
p2219
Vweird
p2220
tp2221
a(g1666
Vtonight
p2222
tp2223
a(g1715
Vfan
p2224
tp2225
a(Vstory
p2226
Vcould
p2227
tp2228
a(Vjustdoit_24
p2229
Vgoat
p2230
tp2231
a(Vcould
p2232
Vtake
p2233
tp2234
a(Vplay
p2235
Vteams
p2236
tp2237
a(g1548
Vgot
p2238
tp2239
a(g1364
g2117
tp2240
a(Vthomassanders
p2241
Vwaitwhat
p2242
tp2243
a(Vmight
p2244
Vthrow
p2245
tp2246
a(Vsomebody
p2247
Vsees
p2248
tp2249
a(Vtexans
p2250
V49ers
p2251
tp2252
a(V``
p2253
Vdad
p2254
tp2255
a(Vraelikesturtles
p2256
Vwaitwhat
p2257
tp2258
a(Vlearning
p2259
Vunambiguous
p2260
tp2261
a(Vstate
p2262
V...
p2263
tp2264
a(Vmain
p2265
Vgate
p2266
tp2267
a(Vsteelers
p2268
Vgame
p2269
tp2270
a(Vblochs
p2271
Vhouse
p2272
tp2273
a(Vmakes
p2274
Vsense
p2275
tp2276
a(Vdemocratic
p2277
Vcuba
p2278
tp2279
a(Vnotaxelle
p2280
Vwaitwhat
p2281
tp2282
a(Vfamily
p2283
Vymca
p2284
tp2285
a(Vvideo
p2286
Vmerchandising
p2287
tp2288
a(Vunequivocal
p2289
g1307
tp2290
a(Vdobbln
p2291
Vright
p2292
tp2293
a(Vteam
p2294
Vpackout
p2295
tp2296
a(Vbakk
p2297
V24-23
p2298
tp2299
a(V``
p2300
g377
tp2301
a(Vnearly
p2302
Vunambiguous
p2303
tp2304
a(Vheard
p2305
Vplaying
p2306
tp2307
a(Vcheckerchairs
p2308
V...
p2309
tp2310
a(Vn't
p2311
Vexpecting
p2312
tp2313
a(Vwisconsin
p2314
Vschool
p2315
tp2316
a(Vla
p2317
g2130
tp2318
a(Vfezfoxdown
p2319
Vyeah
p2320
tp2321
a(Vdermot
p2322
Vmulroney
p2323
tp2324
a(Vsalt_shaker733
p2325
Vhi
p2326
tp2327
a(g129
Vpret
p2328
tp2329
a(Vbetter
p2330
Vtomorrow
p2331
tp2332
a(g396
g532
tp2333
a(Vbay
p2334
Varea
p2335
tp2336
a(Vdespite
p2337
Vsupporting
p2338
tp2339
a(Vsaid
p2340
Vplatform
p2341
tp2342
a(Vamy
p2343
Vschumer
p2344
tp2345
a(Vflirteegirl
p2346
Vbeats
p2347
tp2348
a(Vgot
p2349
Vhome
p2350
tp2351
a(Vbobby
p2352
Vbitch..
p2353
tp2354
a(Vpink
p2355
Vthats
p2356
tp2357
a(Vunambiguous
p2358
Vcause-effect
p2359
tp2360
a(Vtotal
p2361
Vbrexit
p2362
tp2363
a(g706
g2108
tp2364
a(Vacabado
p2365
Vde
p2366
tp2367
a(Vself-proclaimed
p2368
g607
tp2369
a(g1076
V''
p2370
tp2371
a(Vdiscussing
p2372
Vcastro
p2373
tp2374
a(g1536
Vsometimes
p2375
tp2376
a(Vusually
p2377
Vunambiguous
p2378
tp2379
a(Vrun
p2380
Vtoday
p2381
tp2382
a(V75-foot
p2383
Vheave
p2384
tp2385
a(Vexistential
p2386
Vcrisis
p2387
tp2388
a(Vwriting
p2389
Vlegible
p2390
tp2391
a(Vprecious
p2392
Vday
p2393
tp2394
a(Vdiving
p2395
Vlines
p2396
tp2397
a(Vgrim
p2398
g694
tp2399
a(Vukips
p2400
g1752
tp2401
a(g2248
g1994
tp2402
a(g647
V...
p2403
tp2404
a(V'm
p2405
Vjackie
p2406
tp2407
a(Vottawa
p2408
g962
tp2409
a(Voccupied
p2410
Vusing
p2411
tp2412
a(V...
p2413
V...
p2414
tp2415
a(Vwow
p2416
Vfalcons
p2417
tp2418
a(Vguitar
p2419
Vcover
p2420
tp2421
a(Vweek
p2422
g993
tp2423
a(Vrandomly
p2424
Vtesting
p2425
tp2426
a(Vbaalke
p2427
Vwant
p2428
tp2429
a(Vn't
p2430
Vspeak
p2431
tp2432
a(Vbae
p2433
V''
p2434
tp2435
a(Vsomeone
p2436
Vcall
p2437
tp2438
a(Vyear
p2439
Volds
p2440
tp2441
a(Vmake
p2442
Vpickles..
p2443
tp2444
a(Vunambiguous
p2445
Vguidelines
p2446
tp2447
a(Vlow
p2448
Vinfidels
p2449
tp2450
a(g1508
Vque
p2451
tp2452
a(Vphtraffic
p2453
Vpls
p2454
tp2455
a(Vconfucius
p2456
Vrather
p2457
tp2458
a(Vhappy
p2459
Vbirthday
p2460
tp2461
a(g1094
Vwords
p2462
tp2463
a(Vveiled
p2464
Vclaim
p2465
tp2466
a(V``
p2467
Vdya
p2468
tp2469
a(g2217
g389
tp2470
a(Vray
p2471
Vbans
p2472
tp2473
a(g1628
Vnov
p2474
tp2475
a(Vback
p2476
Vpsl
p2477
tp2478
a(Vincontrovertible
p2479
V...
p2480
tp2481
a(Vbirthday
p2482
Vboy
p2483
tp2484
a(g1121
Veverything
p2485
tp2486
a(Vlordilord_
p2487
Vnah
p2488
tp2489
a(Vmscastan
p2490
Vyes
p2491
tp2492
a(Vdate
p2493
Vsucceeded
p2494
tp2495
a(g313
Vonion
p2496
tp2497
a(Vy'all
p2498
Vniggas
p2499
tp2500
a(g1481
g818
tp2501
a(g2118
Vplayer
p2502
tp2503
a(g1435
Vposition
p2504
tp2505
a(Vrequesting
p2506
Vcountry
p2507
tp2508
a(Vwin
p2509
Vchampionships
p2510
tp2511
a(V30
p2512
g1817
tp2513
a(Vwalks
p2514
Vaway..
p2515
tp2516
a(g1366
g1363
tp2517
a(Vdowning
p2518
g47
tp2519
a(Vfun
p2520
Vthing
p2521
tp2522
a(Vgetting
p2523
Vback
p2524
tp2525
a(Vworld
p2526
Vheadquarters
p2527
tp2528
a(Vmins
p2529
Vstraight
p2530
tp2531
a(Vsomeone
p2532
Vdies
p2533
tp2534
a(Vnew
p2535
Vproduct
p2536
tp2537
a(Vsays
p2538
Vmajor
p2539
tp2540
a(Vsometimes
p2541
Vdiscomfort
p2542
tp2543
a(Vfucking
p2544
Vcozy
p2545
tp2546
a(Vart
p2547
Vmonk
p2548
tp2549
a(g1789
g2265
tp2550
a(Vgame
p2551
Vbc
p2552
tp2553
a(Vse
p2554
Vhacen
p2555
tp2556
a(Vwhether
p2557
Vindividual
p2558
tp2559
a(Vran
p2560
V3.10
p2561
tp2562
a(Vbreakfast
p2563
Vthough
p2564
tp2565
a(V'm
p2566
Vyoung
p2567
tp2568
a(Vn't
p2569
Vgo
p2570
tp2571
a(g2440
Vlast
p2572
tp2573
a(Vhbsche
p2574
Videe
p2575
tp2576
a(Vkodak
p2577
Vblack
p2578
tp2579
a(Vfan
p2580
Vacted
p2581
tp2582
a(Vkeep
p2583
Vgetting
p2584
tp2585
a(Vnever
p2586
Vfront
p2587
tp2588
a(Vqu'on
p2589
g848
tp2590
a(Vunambiguous
p2591
Vdiamonds
p2592
tp2593
a(Vlassitude
p2594
Vemblazoned
p2595
tp2596
a(g1350
Vinsists
p2597
tp2598
a(g726
Vnewfag
p2599
tp2600
a(Vex
p2601
Vlast
p2602
tp2603
a(Vzenzom_
p2604
Vindeed
p2605
tp2606
a(Vcloser
p2607
V...
p2608
tp2609
a(g1742
Vmob
p2610
tp2611
a(Vshenanigans
p2612
Vdivision
p2613
tp2614
a(Vchip
p2615
Vcoaching
p2616
tp2617
a(Vrealdonaldtrump
p2618
g1685
tp2619
a(V16th
p2620
g2294
tp2621
a(Vnew
p2622
Vstudio
p2623
tp2624
a(g726
Vlike
p2625
tp2626
a(Vhard
p2627
Venough
p2628
tp2629
a(Vmake
p2630
g2259
tp2631
a(g2434
Vmeans
p2632
tp2633
a(g464
g1418
tp2634
a(V2017
p2635
Vgon
p2636
tp2637
a(Vnah
p2638
Vgot
p2639
tp2640
a(g2077
Vmike
p2641
tp2642
a(Vwant
p2643
Vbc
p2644
tp2645
a(Vunambiguous
p2646
Vthreats
p2647
tp2648
a(Vevery
p2649
Vsingle
p2650
tp2651
a(Vcertain
p2652
Vsong
p2653
tp2654
a(Ventrar
p2655
g2164
tp2656
a(Vhair
p2657
V''
p2658
tp2659
a(Vbad
p2660
Vnews
p2661
tp2662
a(Vanswer
p2663
V''
p2664
tp2665
a(g438
Vtogether
p2666
tp2667
a(V3.12
p2668
Vmi
p2669
tp2670
a(g1797
Vday
p2671
tp2672
a(Voutdated
p2673
V...
p2674
tp2675
a(Vpisze.jest
p2676
Vshimazaki.gram
p2677
tp2678
a(Vnikefuel
p2679
Vearned
p2680
tp2681
a(Vstay
p2682
Vstalking
p2683
tp2684
a(g1645
Vtra
p2685
tp2686
a(Vworld
p2687
Vasked
p2688
tp2689
a(Vheck
p2690
Vbenefit
p2691
tp2692
a(V's
p2693
g959
tp2694
a(g834
Vutter
p2695
tp2696
a(Vbyzantine
p2697
g2123
tp2698
a(Vgot
p2699
g431
tp2700
a(g2406
Vrobinson
p2701
tp2702
a(Vdrummers
p2703
Vreally
p2704
tp2705
a(g2587
g655
tp2706
a(Vcliffhawksmcbl
p2707
g101
tp2708
a(Vkeep
p2709
Vwalking
p2710
tp2711
a(V''
p2712
g2538
tp2713
a(Vcubans
p2714
Vstruggles
p2715
tp2716
a(g890
Vissues
p2717
tp2718
a(Vyang
p2719
Vselalu
p2720
tp2721
a(g1869
Vtsukki
p2722
tp2723
a(Vknow
p2724
Vvideo
p2725
tp2726
a(Vpieces
p2727
g2047
tp2728
a(Vunambiguous
p2729
Vthough
p2730
tp2731
a(Vbrett
p2732
Vfarve
p2733
tp2734
a(Vlast
p2735
Vnight
p2736
tp2737
a(Vfunny
p2738
Vbone
p2739
tp2740
a(Vhappy
p2741
Vbornday
p2742
tp2743
a(Vholiday
p2744
Vspirit
p2745
tp2746
a(Vchildish
p2747
Vgambino
p2748
tp2749
a(g1427
Vrun
p2750
tp2751
a(Vlil
p2752
Vbat
p2753
tp2754
a(Vsay
p2755
g924
tp2756
a(Vseen
p2757
Vanything
p2758
tp2759
a(Varrow
p2760
Vrhodes
p2761
tp2762
a(Vshutting
p2763
Vbeckham
p2764
tp2765
a(Vcasino
p2766
Vstill
p2767
tp2768
a(Vstart
p2769
Vdating
p2770
tp2771
a(Vwait
p2772
Vwould
p2773
tp2774
a(Vreal
p2775
g1277
tp2776
a(Vunambiguous
p2777
Vmoral
p2778
tp2779
a(V12
p2780
g1008
tp2781
a(Vpitt
p2782
Vbiopic
p2783
tp2784
a(g255
Vuh
p2785
tp2786
a(Vel
p2787
Vda..
p2788
tp2789
a(V``
p2790
g1371
tp2791
a(Vdr.farooq
p2792
g440
tp2793
a(Vgame
p2794
Vcould
p2795
tp2796
a(Vnew
p2797
V4.
p2798
tp2799
a(Voui
p2800
g556
tp2801
a(g2561
Vmi
p2802
tp2803
a(Vclear
p2804
Vviews
p2805
tp2806
a(Vunambiguous
p2807
Vcomplexity
p2808
tp2809
a(Veagles
p2810
Vadministration
p2811
tp2812
a(Vstay
p2813
Vprayed
p2814
tp2815
a(Vlife-changing
p2816
Vmusic
p2817
tp2818
a(Vunambiguous
p2819
Vstance
p2820
tp2821
a(Vgiant
p2822
Vspongebob
p2823
tp2824
a(Vthedailybeast
p2825
Vprobably
p2826
tp2827
a(g1375
Vet
p2828
tp2829
a(Vmove
p2830
Vahead
p2831
tp2832
a(Vtheorem
p2833
Vstates
p2834
tp2835
a(Veuropean
p2836
Vunity
p2837
tp2838
a(Vrelationship
p2839
V...
p2840
tp2841
a(Vgirls
p2842
g1153
tp2843
a(Vpastor
p2844
g714
tp2845
a(Vsunday
p2846
Vrunday
p2847
tp2848
a(V''
p2849
g1243
tp2850
a(Vhookah
p2851
Vparty
p2852
tp2853
a(Vlsu
p2854
g2000
tp2855
a(Vamazing
p2856
Vstory
p2857
tp2858
a(Vjuliahb1
p2859
g188
tp2860
a(Vdifferent
p2861
Vcostume
p2862
tp2863
a(Vskymurnaghan
p2864
Vwell
p2865
tp2866
a(g2425
Vpassengers
p2867
tp2868
a(g1439
Vget
p2869
tp2870
a(V...
p2871
V``
p2872
tp2873
a(Vernst
p2874
g2271
tp2875
a(Vashleyapplepie
p2876
Vtbh
p2877
tp2878
a(Vchoices
p2879
V...
p2880
tp2881
a(g1651
Vla
p2882
tp2883
a(Vsex
p2884
Vcalendar
p2885
tp2886
a(g2124
Vmaterials
p2887
tp2888
a(Vroc
p2889
Vnation
p2890
tp2891
a(g420
Vtoday
p2892
tp2893
a(Vsazali
p2894
g2719
tp2895
a(Vbell
p2896
Vsaying
p2897
tp2898
a(Vca
p2899
g502
tp2900
a(Vn't
p2901
Vgood
p2902
tp2903
a(Vvoit
p2904
Vle
p2905
tp2906
a(Vcoaching
p2907
Vjob
p2908
tp2909
a(Vseems
p2910
Vpretty
p2911
tp2912
a(Vbehind
p2913
Vthomas
p2914
tp2915
a(Vstupid
p2916
Vjus
p2917
tp2918
a(Vsure
p2919
Vstore
p2920
tp2921
a(g33
V.damn
p2922
tp2923
a(Vhairs
p2924
V''
p2925
tp2926
a(g2720
Vbermain
p2927
tp2928
a(Vbottled
p2929
Vinside
p2930
tp2931
a(g2880
Vgood
p2932
tp2933
a(Vstory
p2934
Vbegan
p2935
tp2936
a(g2602
Vyear
p2937
tp2938
a(V21
p2939
Vyards
p2940
tp2941
a(V``
p2942
Vgo
p2943
tp2944
a(Vn't
p2945
Vremember
p2946
tp2947
a(Vactually
p2948
Vcontain
p2949
tp2950
a(Vcorrer
p2951
Ven
p2952
tp2953
a(g726
Vreally
p2954
tp2955
a(Vlets
p2956
Vdefund
p2957
tp2958
a(Vunambiguous
p2959
Vmotive
p2960
tp2961
a(V's
p2962
Vpretty
p2963
tp2964
a(Vunambiguous
p2965
Vregional
p2966
tp2967
a(Vex*
p2968
Vbitches
p2969
tp2970
a(Vfallible
p2971
Vhuman
p2972
tp2973
a(g1539
V...
p2974
tp2975
a(Vmom
p2976
V's
p2977
tp2978
a(g494
Vgritar
p2979
tp2980
a(Vinstinct
p2981
Vpose
p2982
tp2983
a(V''
p2984
Vdue
p2985
tp2986
a(V3-0
p2987
g1328
tp2988
a(Vsingle
p2989
Vunambiguous
p2990
tp2991
a(g509
Vpaper
p2992
tp2993
a(Vkinda
p2994
Vodd
p2995
tp2996
a(Vdear
p2997
g1078
tp2998
a(Vrblifeisgood
p2999
Vwaitwhat
p3000
tp3001
a(Vunambiguous
p3002
Vchoice
p3003
tp3004
a(Vone
p3005
Vweek
p3006
tp3007
a(Vfacing
p3008
Vjudges
p3009
tp3010
a(g1925
Vspend
p3011
tp3012
a(Vvonnie__b
p3013
g1808
tp3014
a(Vsay
p3015
g756
tp3016
a(Vchargers
p3017
Vfans
p3018
tp3019
a(Vdolphins
p3020
g2250
tp3021
a(g2390
Vunambiguous
p3022
tp3023
a(Vlast
p3024
Vperson
p3025
tp3026
a(g1513
Vjum
p3027
tp3028
a(Vuhhh
p3029
V...
p3030
tp3031
a(Vthrowin
p3032
Vmoves
p3033
tp3034
a(g2036
Vused
p3035
tp3036
a(g2233
Vback
p3037
tp3038
a(Vvideo
p3039
Vdropping
p3040
tp3041
a(Vunambiguous
p3042
Vopinion
p3043
tp3044
a(Vantidem
p3045
Vperson
p3046
tp3047
a(Vmultilateral
p3048
g723
tp3049
a(Vlong
p3050
Vtd
p3051
tp3052
a(Vus
p3053
g2101
tp3054
a(Vgray
p3055
g2924
tp3056
a(Vsideline
p3057
Vlike
p3058
tp3059
a(Vvenom
p3060
g1496
tp3061
a(Vperform
p3062
g1665
tp3063
a(Vmarket
p3064
Vprices
p3065
tp3066
a(V``
p3067
g104
tp3068
a(V``
p3069
Vdeath
p3070
tp3071
a(Vf77
p3072
Vanymore
p3073
tp3074
a(Vright
p3075
Varm
p3076
tp3077
a(Vkemeny-young
p3078
Vwinner
p3079
tp3080
a(Vrefs
p3081
Vass
p3082
tp3083
a(Vwould
p3084
Vseem
p3085
tp3086
a(Vniggas
p3087
Vgiving
p3088
tp3089
a(Vkwumbb
p3090
Vhighlights
p3091
tp3092
a(Vdestiny__gee
p3093
g726
tp3094
a(Vmiss
p3095
Vmajors
p3096
tp3097
a(Vn't
p3098
Vfind
p3099
tp3100
a(Vaccess
p3101
Vpipeline
p3102
tp3103
a(Vchannel
p3104
Vran
p3105
tp3106
a(Vfeeling
p3107
Vstuck
p3108
tp3109
a(Vnever
p3110
Vstopped
p3111
tp3112
a(g620
V...
p3113
tp3114
a(Vemeritus
p3115
Vbenedict
p3116
tp3117
a(Vshitty
p3118
Vfriends
p3119
tp3120
a(Voregon
p3121
Vjob
p3122
tp3123
a(Vde
p3124
Vcom
p3125
tp3126
a(Vv
p3127
Velliptical
p3128
tp3129
a(Vlast
p3130
g1275
tp3131
a(Vname
p3132
V...
p3133
tp3134
a(g3116
Vxvi
p3135
tp3136
a(Valready
p3137
Vshooting
p3138
tp3139
a(g1103
Vdays
p3140
tp3141
a(Vpitpup
p3142
V...
p3143
tp3144
a(Vcondorcet
p3145
Vwinner
p3146
tp3147
a(g2685
Vqui
p3148
tp3149
a(Vsharm_runners
p3150
Vawesome
p3151
tp3152
a(Vbasically
p3153
Vholding
p3154
tp3155
a(Vyesterday
p3156
Vtho
p3157
tp3158
a(V'm
p3159
Vglad
p3160
tp3161
a(Vpope
p3162
g3115
tp3163
a(g1519
g1477
tp3164
a(Vla
p3165
g1412
tp3166
a(Vcook
p3167
g1802
tp3168
a(Vu.k.
p3169
Vend
p3170
tp3171
a(Vlog
p3172
Vcabin
p3173
tp3174
a(Vkslsharapark
p3175
Vthats
p3176
tp3177
a(Vsarahjolney1
p3178
Vwell
p3179
tp3180
a(Vpeople
p3181
Vfollowed
p3182
tp3183
a(Vdominic
p3184
V's
p3185
tp3186
a(Vsisters
p3187
Vca
p3188
tp3189
a(Vevery
p3190
Vnewspaper
p3191
tp3192
a(V5.14
p3193
Vmi
p3194
tp3195
a(g1378
Vsnapchat
p3196
tp3197
a(V's
p3198
Vtime
p3199
tp3200
a(Volympic
p3201
Vcommittee
p3202
tp3203
a(Vd'ducation
p3204
Vsexuelle
p3205
tp3206
a(Vtights
p3207
Vedition
p3208
tp3209
a(V10.13
p3210
Vmi
p3211
tp3212
a(g2558
Vmuslims
p3213
tp3214
a(g2338
g2340
tp3215
a(V's
p3216
Vgoing
p3217
tp3218
a(g367
Vmeaning
p3219
tp3220
a(Vmain
p3221
g371
tp3222
a(Vveden
p3223
Valle
p3224
tp3225
a(Vcinder
p3226
V...
p3227
tp3228
a(Vshawn
p3229
Vdidnt
p3230
tp3231
a(Vchris
p3232
Vbrown
p3233
tp3234
a(Vwater
p3235
Vback
p3236
tp3237
a(V're
p3238
Vsupposed
p3239
tp3240
a(Vwaitwhat
p3241
Vdave
p3242
tp3243
a(g1195
Vlike
p3244
tp3245
a(Vtruly
p3246
Vunforgettable
p3247
tp3248
a(Vwhite
p3249
Vman
p3250
tp3251
a(Vcommon
p3252
Vman
p3253
tp3254
a(Vget
p3255
Vsucked
p3256
tp3257
a(Vrentre
p3258
Vencore
p3259
tp3260
a(g138
Vmust
p3261
tp3262
a(Vsuccessfully
p3263
Vmoved
p3264
tp3265
a(V5913
p3266
g1726
tp3267
a(Vguess
p3268
Vtoday
p3269
tp3270
a(g3022
Vfortran
p3271
tp3272
a(Vunambiguous
p3273
Vview
p3274
tp3275
a(Vstuff
p3276
Vmemorized
p3277
tp3278
a(Vpffft-
p3279
Vwaitwhat
p3280
tp3281
a(Vsonia
p3282
Vlafuente
p3283
tp3284
a(V...
p3285
g1889
tp3286
a(Vappropriate
p3287
Vpre
p3288
tp3289
a(g2865
Vdone
p3290
tp3291
a(Vsearch
p3292
Vdebris
p3293
tp3294
a(Vmorally
p3295
g2591
tp3296
a(Vran
p3297
V6.10
p3298
tp3299
a(Vemotionally
p3300
Vconflicted
p3301
tp3302
a(Vsomething
p3303
Vlike
p3304
tp3305
a(Vunambiguous
p3306
Vterms
p3307
tp3308
a(g2905
Vbout
p3309
tp3310
a(V``
p3311
Vdaddy
p3312
tp3313
a(Vdick
p3314
V''
p3315
tp3316
a(V_queenchara_
p3317
Vwaitwhat
p3318
tp3319
a(Vquick
p3320
Venough
p3321
tp3322
a(g988
g3124
tp3323
a(Vuse
p3324
Vunambiguous
p3325
tp3326
a(g1887
Vmiddle
p3327
tp3328
a(V2319
p3329
Vjoin
p3330
tp3331
a(Vabstract
p3332
Vconcepts
p3333
tp3334
a(Vcame
p3335
Vclose
p3336
tp3337
a(Vunlimited
p3338
Vdata
p3339
tp3340
a(Vdel
p3341
Vpotro
p3342
tp3343
a(V*licks
p3344
g1147
tp3345
a(Vrd
p3346
V1
p3347
tp3348
a(Vlmaooo
p3349
V``
p3350
tp3351
a(Vpahty
p3352
Vdun
p3353
tp3354
a(g1275
Vhrs
p3355
tp3356
a(Vspecific
p3357
g2646
tp3358
a(Vfourteenth
p3359
Vfloor
p3360
tp3361
a(Vran
p3362
V3.34
p3363
tp3364
a(g1530
V''
p3365
tp3366
a(Vtrump
p3367
V...
p3368
tp3369
a(V's
p3370
Vheadset
p3371
tp3372
a(V...
p3373
Voops
p3374
tp3375
a(Vbawnsai
p3376
Vwaitwhat
p3377
tp3378
a(Vmatchup
p3379
V...
p3380
tp3381
a(Vsquawkstreet
p3382
g395
tp3383
a(Vunambiguous
p3384
Vanswers
p3385
tp3386
a(g1278
g2813
tp3387
a(Vbloodlink
p3388
g2244
tp3389
a(Vslight
p3390
g2386
tp3391
a(Vreceiver
p3392
g2913
tp3393
a(Vtraditional
p3394
Vcatalonian
p3395
tp3396
a(V''
p3397
Vsnap
p3398
tp3399
a(Vbest
p3400
Vpoint
p3401
tp3402
a(Vtext
p3403
Vbox
p3404
tp3405
a(g1192
Vbday
p3406
tp3407
a(Vpitt
p3408
g333
tp3409
a(Vnothing
p3410
Vlike
p3411
tp3412
a(g494
g2365
tp3413
a(Vthree
p3414
Vhours
p3415
tp3416
a(Vsbcssbasketball
p3417
Vgreat
p3418
tp3419
a(V.ohhhh
p3420
V..nvm
p3421
tp3422
a(Vstart
p3423
Vroyally
p3424
tp3425
a(V2017
p3426
Vdragon
p3427
tp3428
a(Vsaid
p3429
g2942
tp3430
a(Vmon
p3431
Vmauvais
p3432
tp3433
a(Vthrowing
p3434
Videas
p3435
tp3436
a(Vpigeons
p3437
Vswarm
p3438
tp3439
a(Vgame
p3440
V''
p3441
tp3442
a(Vruining
p3443
Vsoc
p3444
tp3445
a(Vbrendon
p3446
Vurie
p3447
tp3448
a(g3035
g2161
tp3449
a(V//
p3450
Vhelp
p3451
tp3452
a(V``
p3453
Vpoop
p3454
tp3455
a(Vretweeted
p3456
Vmeowconvert
p3457
tp3458
a(Vprobably
p3459
Vai
p3460
tp3461
a(V12/8
p3462
g1123
tp3463
a(Vrenatinhokrf
p3464
g2655
tp3465
a(V*she
p3466
Vraises
p3467
tp3468
a(Vkiyomitsuu
p3469
V//remember
p3470
tp3471
a(Vulearnnz
p3472
Vht
p3473
tp3474
a(g1893
g717
tp3475
a(g3185
g2506
tp3476
a(Vle
p3477
g342
tp3478
a(Vsofs
p3479
g529
tp3480
a(g3401
Vguard
p3481
tp3482
a(Vgarylineker
p3483
Vaguero
p3484
tp3485
a(g572
Vmind
p3486
tp3487
a(Vlol
p3488
Vforgot
p3489
tp3490
a(Vmoral
p3491
Vconclusion
p3492
tp3493
a(g2788
g1397
tp3494
a(Veric
p3495
Vberry
p3496
tp3497
a(Vkevin
p3498
Vthrows
p3499
tp3500
a(g3233
Vimpersonating
p3501
tp3502
a(Vomg_waitwhat
p3503
Vgarbage
p3504
tp3505
a(Vei
p3506
g1409
tp3507
a(Vfault
p3508
Vbrodie
p3509
tp3510
a(Valarm
p3511
g750
tp3512
a(Vsun/moon
p3513
Vcards
p3514
tp3515
a(g3030
V.thomas
p3516
tp3517
a(Vfairbanks
p3518
Valaska
p3519
tp3520
a(Vunambiguous
p3521
Vcatch
p3522
tp3523
a(Vpeter
p3524
Vmichael
p3525
tp3526
a(g1984
Vhere..
p3527
tp3528
a(V's
p3529
Vdeath
p3530
tp3531
a(g2370
g987
tp3532
a(Vwhole
p3533
Varticle
p3534
tp3535
a(g3427
g2884
tp3536
a(Vget
p3537
Va.d.d
p3538
tp3539
a(Vclub
p3540
Vwednesday
p3541
tp3542
a(Vnations
p3543
Vcapital
p3544
tp3545
a(g726
Voke
p3546
tp3547
a(Vwaitwhat
p3548
V...
p3549
tp3550
a(Vline
p3551
Vthough
p3552
tp3553
a(Vimpressive
p3554
g1607
tp3555
a(g2957
g859
tp3556
a(Vtake
p3557
Vaction
p3558
tp3559
a(V's
p3560
Veasy
p3561
tp3562
a(g3140
g23
tp3563
a(g1859
Vgot
p3564
tp3565
a(Vtwenty
p3566
g1333
tp3567
a(Vasst
p3568
g2907
tp3569
a(Vanimated
p3570
Vlaughs
p3571
tp3572
a(V2259
p3573
Vjoin
p3574
tp3575
a(Vupp
p3576
Vlate
p3577
tp3578
a(Vbadhair
p3579
Voh
p3580
tp3581
a(V'm
p3582
V13
p3583
tp3584
a(Vnanaman
p3585
Vyan
p3586
tp3587
a(Vtime
p3588
g2389
tp3589
a(Vway-too-simple
p3590
g1820
tp3591
a(g1803
Vwest
p3592
tp3593
a(g2826
Vbec
p3594
tp3595
a(Vkasich
p3596
Vencouraged
p3597
tp3598
a(Vte
p3599
Vextrao
p3600
tp3601
a(g760
Vstops
p3602
tp3603
a(Vmichigan
p3604
g1532
tp3605
a(V5'10
p3606
Vbruh
p3607
tp3608
a(Vsaid
p3609
g2105
tp3610
a(g180
Vpure
p3611
tp3612
a(Vfrees
p3613
Vcongress
p3614
tp3615
a(V``
p3616
Vcommunity
p3617
tp3618
a(Vpretty
p3619
g2302
tp3620
a(Vcommence
p3621
Vsortir
p3622
tp3623
a(g1806
Vgrounds
p3624
tp3625
a(Vmynameisjonah
p3626
Vsweatshop
p3627
tp3628
a(Vswept
p3629
g812
tp3630
a(g2373
g3529
tp3631
a(Vmere
p3632
Vconveniences
p3633
tp3634
a(Vmom
p3635
Vgoes
p3636
tp3637
a(Vlimits
p3638
Vhistory
p3639
tp3640
a(Vwrite
p3641
Vf77
p3642
tp3643
a(g671
V''
p3644
tp3645
a(Vwaitwhat
p3646
Vremix
p3647
tp3648
a(g1772
Vlike
p3649
tp3650
a(g1922
Vhappens
p3651
tp3652
a(Vfalse
p3653
Vequivalence
p3654
tp3655
a(g1648
Vgross
p3656
tp3657
a(Vattackerman
p3658
Vmaybe
p3659
tp3660
a(g1516
g2871
tp3661
a(g2295
Vpresents
p3662
tp3663
a(Vbig
p3664
Vgains
p3665
tp3666
a(Vunambiguous
p3667
g2079
tp3668
a(Vhometown
p3669
Vcrowd
p3670
tp3671
a(Vreal
p3672
Voneals
p3673
tp3674
a(Vdodge
p3675
Vth
p3676
tp3677
a(g942
g1374
tp3678
a(g449
g865
tp3679
a(Vnike
p3680
Vhtt
p3681
tp3682
a(Vunambiguous
p3683
Vlogo
p3684
tp3685
a(Vpure
p3686
Vplease
p3687
tp3688
a(g1905
g2755
tp3689
a(Vnipunchopra7
p3690
Vmakes
p3691
tp3692
a(Vthank
p3693
g726
tp3694
a(g1404
Vdm
p3695
tp3696
a(V10.26
p3697
Vmi
p3698
tp3699
a(g927
g1263
tp3700
a(Vbrings
p3701
g3570
tp3702
a(Vn't
p3703
Vwait
p3704
tp3705
a(Vfox
p3706
g1055
tp3707
a(Vran
p3708
g80
tp3709
a(Vwaitwhat_tv
p3710
g3488
tp3711
a(Vdep
p3712
Vheyday
p3713
tp3714
a(Vhangoutfest
p3715
Vtickets
p3716
tp3717
a(g1410
g3223
tp3718
a(Vran
p3719
V10.60
p3720
tp3721
a(Vsilver
p3722
Vhawk
p3723
tp3724
a(g3597
Vbringing
p3725
tp3726
a(g2917
Vlike
p3727
tp3728
a(Vbird
p3729
Vseed
p3730
tp3731
a(Vempezamos
p3732
g2787
tp3733
a(Vget
p3734
Vback
p3735
tp3736
a(Vlatimes
p3737
Vuh
p3738
tp3739
a(Vreyon
p3740
Vkay
p3741
tp3742
a(V...
p3743
V.that
p3744
tp3745
a(Vdwp
p3746
Vsanctions
p3747
tp3748
a(Vknow
p3749
g726
tp3750
a(Vthevulcansalute
p3751
Vwaitwhat
p3752
tp3753
a(Valready
p3754
g3513
tp3755
a(Vwonderful
p3756
Vpeople
p3757
tp3758
a(Vcharitys
p3759
Vugly
p3760
tp3761
a(Vnext
p3762
Vmove
p3763
tp3764
a(Varnia
p3765
V''
p3766
tp3767
a(g3424
Vshitting
p3768
tp3769
a(Vca
p3770
g3258
tp3771
a(Vmake
p3772
Vdetermine
p3773
tp3774
a(Valone
p3775
g984
tp3776
a(g2083
g1561
tp3777
a(Vreal
p3778
Vone
p3779
tp3780
a(V''
p3781
Vok
p3782
tp3783
a(g2584
Vpapped
p3784
tp3785
a(Vrae
p3786
Vsremmurd
p3787
tp3788
a(Vbecome
p3789
Vpresident
p3790
tp3791
a(Vnike
p3792
g2526
tp3793
a(g270
Vcentennial
p3794
tp3795
a(Vtv
p3796
Vshow
p3797
tp3798
a(Vn't
p3799
Vtake
p3800
tp3801
a(g665
Vundies
p3802
tp3803
a(Vcame
p3804
g2476
tp3805
a(V's
p3806
Vworth
p3807
tp3808
a(Vcraft
p3809
Vbeer
p3810
tp3811
a(Vmeaningful
p3812
Vrun
p3813
tp3814
a(Vnature
p3815
Vunambiguous
p3816
tp3817
a(Vinfo
p3818
Vgoes
p3819
tp3820
a(Vhumanity
p3821
g1939
tp3822
a(Vlogin
p3823
Vinfo
p3824
tp3825
a(g1605
g3346
tp3826
a(Vwaitwhat
p3827
Vbbn
p3828
tp3829
a(Vwhole
p3830
Vbook
p3831
tp3832
a(g1586
Vhair
p3833
tp3834
a(g1372
Vett
p3835
tp3836
a(Vstorage
p3837
Vguy
p3838
tp3839
a(Vnortheastern
p3840
Vtennessee
p3841
tp3842
a(Vkisses
p3843
g514
tp3844
a(Vdarrencriss
p3845
Vcharms
p3846
tp3847
a(Vuncrpd
p3848
Vmarks
p3849
tp3850
a(V're
p3851
Vimfao
p3852
tp3853
a(Vgoing
p3854
Vprecise
p3855
tp3856
a(V``
p3857
Vbrownies
p3858
tp3859
a(Vsmelting
p3860
Vunambiguous
p3861
tp3862
a(Vim
p3863
Vdead
p3864
tp3865
a(Vmove
p3866
Vaway
p3867
tp3868
a(Vgo
p3869
Vfaster
p3870
tp3871
a(V's
p3872
Vgreek
p3873
tp3874
a(V'a
p3875
Vleaflet
p3876
tp3877
a(Vcoolbluelester
p3878
Vwaitwhat
p3879
tp3880
a(Vrbw_mamamoo
p3881
V...
p3882
tp3883
a(Vprovide
p3884
Vchildren
p3885
tp3886
a(Valways
p3887
Vget
p3888
tp3889
a(g3687
Vprotect
p3890
tp3891
a(Vstill
p3892
Vunderstand
p3893
tp3894
a(V/elusih
p3895
Vmake
p3896
tp3897
a(g3861
g2153
tp3898
a(Vlooking
p3899
Voutside
p3900
tp3901
a(Vpro-eu
p3902
Vparty
p3903
tp3904
a(Vtake
p3905
Vaway
p3906
tp3907
a(Vwoke
p3908
g3576
tp3909
a(g3196
Vstories
p3910
tp3911
a(g1186
g113
tp3912
a(Vvs
p3913
g1604
tp3914
a(Voppressed
p3915
Vcuban
p3916
tp3917
a(g3138
g929
tp3918
a(Vtwins
p3919
Vzeppelin
p3920
tp3921
a(Vmiss
p3922
Vswinging
p3923
tp3924
a(Vmoi
p3925
g941
tp3926
a(Vone
p3927
Vhour
p3928
tp3929
a(Vball
p3930
g3913
tp3931
a(g3460
Vn't
p3932
tp3933
a(Vsupernatural
p3934
Vremix
p3935
tp3936
a(Vswapfellalphys
p3937
Vwaitwhat
p3938
tp3939
a(Vget
p3940
Vfucked
p3941
tp3942
a(g3819
Vcurrent
p3943
tp3944
a(Vmad
p3945
g613
tp3946
a(Vkeep
p3947
g667
tp3948
a(Vlove
p3949
Vheart
p3950
tp3951
a(Vhead
p3952
Vsays
p3953
tp3954
a(Vnamewithnumbers
p3955
Vwaitwhat
p3956
tp3957
a(g2115
Vanyone
p3958
tp3959
a(g896
Vway
p3960
tp3961
a(Vsnl
p3962
g619
tp3963
a(g3810
g2929
tp3964
a(Vmere
p3965
g2971
tp3966
a(Vnever
p3967
Vmentioned
p3968
tp3969
a(g408
Vkm
p3970
tp3971
a(Vlordilord_
p3972
Vreal
p3973
tp3974
a(Vunambiguous
p3975
g3078
tp3976
a(Vnovember
p3977
Vteam
p3978
tp3979
a(Vcameoutswingin_
p3980
Vwaitwhat
p3981
tp3982
a(Vfake
p3983
g3949
tp3984
a(Vobjective
p3985
Vfact
p3986
tp3987
a(g1475
g494
tp3988
a(Vran
p3989
g194
tp3990
a(g2010
g1688
tp3991
a(Vjg
p3992
Vharus
p3993
tp3994
a(Vdone
p3995
Vson
p3996
tp3997
a(Vswarthy
p3998
g83
tp3999
a(Vwaitwhat.jpg
p4000
Vunfollowed
p4001
tp4002
a(Vindescribable
p4003
Vmoment
p4004
tp4005
a(g286
g1644
tp4006
a(Vrecovery
p4007
Vday
p4008
tp4009
a(Vwait
p4010
V...
p4011
tp4012
a(Vsaid
p4013
Vfindlays
p4014
tp4015
a(V20
p4016
g2529
tp4017
a(V2272
p4018
Vjoin
p4019
tp4020
a(V``
p4021
Vrespond
p4022
tp4023
a(Vbosse
p4024
Vmais
p4025
tp4026
a(V49ers
p4027
V26-6
p4028
tp4029
a(Vice
p4030
Vpath
p4031
tp4032
a(g1704
g2198
tp4033
a(Vobviously
p4034
Vneed
p4035
tp4036
a(g1731
g3613
tp4037
a(Vunambiguous
p4038
Vtitle
p4039
tp4040
a(Vaku
p4041
g3992
tp4042
a(Vdz
p4043
Vnts
p4044
tp4045
a(Vlongest
p4046
Vrun
p4047
tp4048
a(g15
Vsays
p4049
tp4050
a(Vtruth
p4051
Vthough
p4052
tp4053
a(Vbrady
p4054
Vsits
p4055
tp4056
a(V's
p4057
Vworst
p4058
tp4059
a(Vpikavoca_aus
p4060
Vwaitwhat
p4061
tp4062
a(Vlebanese
p4063
V...
p4064
tp4065
a(g1695
Vgoing
p4066
tp4067
a(V110
p4068
Vyears
p4069
tp4070
a(Vwork
p4071
g2627
tp4072
a(Vnotebook
p4073
Vlaptops
p4074
tp4075
a(Vguess
p4076
V...
p4077
tp4078
a(Vbah
p4079
Vl'article
p4080
tp4081
a(g3920
Vbram
p4082
tp4083
a(g3720
Vkm
p4084
tp4085
a(g2403
Vca
p4086
tp4087
a(Vart
p4088
g1349
tp4089
a(g1398
Vel
p4090
tp4091
a(Vkasich
p4092
Vsays
p4093
tp4094
a(g153
Vsteelers
p4095
tp4096
a(Vconsults
p4097
Vnotes
p4098
tp4099
a(Vhappy
p4100
Vbday
p4101
tp4102
a(Vhbo
p4103
Vportraits
p4104
tp4105
a(Vstandard
p4106
Vnarratives
p4107
tp4108
a(g575
Vtuxboard
p4109
tp4110
a(Velse
p4111
Vthinks
p4112
tp4113
a(Vdifferent
p4114
Vconventions
p4115
tp4116
a(Vpraying
p4117
Vman
p4118
tp4119
a(V'm
p4120
Vback
p4121
tp4122
a(Vran
p4123
V4.14
p4124
tp4125
a(g390
Vbadges
p4126
tp4127
a(V'm
p4128
Vcounting
p4129
tp4130
a(Vim
p4131
Vgon
p4132
tp4133
a(Vchicagobears
p4134
Vdefeat
p4135
tp4136
a(Vstay
p4137
g2775
tp4138
a(Vrottenmoo
p4139
Vwaitwhat
p4140
tp4141
a(Vuncle
p4142
Vwants
p4143
tp4144
a(V``
p4145
Vone
p4146
tp4147
a(g2335
Vtv
p4148
tp4149
a(g703
Vfilm
p4150
tp4151
a(Vran
p4152
g2068
tp4153
a(g2474
Vdsseldorf
p4154
tp4155
a(g3127
g2594
tp4156
a(Veverything
p4157
Vjapanese-y
p4158
tp4159
a(Vhhh
p4160
Vgallery
p4161
tp4162
a(g1775
Vgrace
p4163
tp4164
a(Vnooooooooooo
p4165
V...
p4166
tp4167
a(Vklo
p4168
Vmau
p4169
tp4170
a(Vshameless
p4171
Vflirting
p4172
tp4173
a(g1085
V''
p4174
tp4175
a(Vbrad
p4176
g2782
tp4177
a(Vmadness
p4178
g2096
tp4179
a(Vtoll
p4180
Vsoars
p4181
tp4182
a(Vnew
p4183
Vgf
p4184
tp4185
a(Vdeath
p4186
g4180
tp4187
a(Vohnygod
p4188
g3863
tp4189
a(Vlengua-ok
p4190
V...
p4191
tp4192
a(g1967
Vsize
p4193
tp4194
a(Vconstitutional
p4195
Vright
p4196
tp4197
a(Vrickygervais
p4198
V``
p4199
tp4200
a(g411
V''
p4201
tp4202
a(Vlol
p4203
V'd
p4204
tp4205
a(Vmini
p4206
Vcooper
p4207
tp4208
a(g159
g1780
tp4209
a(Vplease
p4210
Vfix
p4211
tp4212
a(Vfall
p4213
Vback
p4214
tp4215
a(g126
Vwaitwhat
p4216
tp4217
a(g2251
Vrams
p4218
tp4219
a(Vartbook
p4220
Vdescription
p4221
tp4222
a(Vdouble
p4223
Vtext
p4224
tp4225
a(Vtouching
p4226
g3952
tp4227
a(Vweekend
p4228
Vcount
p4229
tp4230
a(Vran
p4231
V8.36
p4232
tp4233
a(Vblue
p4234
Vdevil
p4235
tp4236
a(Vweekend
p4237
Vwould
p4238
tp4239
a(V...
p4240
g2772
tp4241
a(Vblame
p4242
Vjournalists
p4243
tp4244
a(Vsells
p4245
g4043
tp4246
a(g1783
Vcalendar
p4247
tp4248
a(g2882
Vfille
p4249
tp4250
a(g3143
g2512
tp4251
a(g4080
Vj'en
p4252
tp4253
a(Vback
p4254
Vrub
p4255
tp4256
a(Vbrownies
p4257
V''
p4258
tp4259
a(V``
p4260
Vstudents
p4261
tp4262
a(Vlumberjack
p4263
g288
tp4264
a(Vmorning
p4265
Vmika
p4266
tp4267
a(g355
Vwaitwhat
p4268
tp4269
a(Vthx
p4270
Vily
p4271
tp4272
a(V...
p4273
g1174
tp4274
a(g2966
Vconnect
p4275
tp4276
a(Vpay
p4277
Vdaycare
p4278
tp4279
a(Vdrive
p4280
Vhard
p4281
tp4282
a(g2504
Vclear
p4283
tp4284
a(g2205
g3165
tp4285
a(Vran
p4286
g2668
tp4287
a(Vshoots
p4288
Vschool
p4289
tp4290
a(Vgood
p4291
Vgrade
p4292
tp4293
a(Vmake
p4294
g3053
tp4295
a(Vtravis
p4296
Vdeslaurier
p4297
tp4298
a(Vafc
p4299
Vwest
p4300
tp4301
a(g2366
Vpronto
p4302
tp4303
a(Vquick
p4304
Vlately
p4305
tp4306
a(g2499
Vgassin
p4307
tp4308
a(V'm
p4309
Vbuying
p4310
tp4311
a(Vwatch
p4312
Vtumblr
p4313
tp4314
a(Veven
p4315
Vabc
p4316
tp4317
a(g3928
V''
p4318
tp4319
a(g4047
Vever
p4320
tp4321
a(Vclub
p4322
Vday
p4323
tp4324
a(V24,000
p4325
Vviews
p4326
tp4327
a(Vhelping
p4328
Vmany
p4329
tp4330
a(Vgoogleplay
p4331
Vwaitwhat
p4332
tp4333
a(Vstudent
p4334
Vdescribes
p4335
tp4336
a(Vfashionable
p4337
Vsan
p4338
tp4339
a(Vlong
p4340
Vweek
p4341
tp4342
a(V's
p4343
g3153
tp4344
a(g581
Vya
p4345
tp4346
a(Vplay
p4347
Vbarbie
p4348
tp4349
a(g1494
g535
tp4350
a(Vjob
p4351
Vwell
p4352
tp4353
a(g786
Vtriggers
p4354
tp4355
a(g1640
V...
p4356
tp4357
a(Vlast
p4358
g2083
tp4359
a(Vlike
p4360
g2649
tp4361
a(V2644
p4362
Vjoin
p4363
tp4364
a(Vhey
p4365
g182
tp4366
a(Vnever
p4367
Vput
p4368
tp4369
a(V's
p4370
Vsimply
p4371
tp4372
a(Vlist
p4373
Vvia
p4374
tp4375
a(g1686
Vburners
p4376
tp4377
a(Vlot
p4378
Vdifferent
p4379
tp4380
a(Vrun
p4381
Vbase
p4382
tp4383
a(Vdavidjo52951945
p4384
Vlet
p4385
tp4386
a(Vlike
p4387
g916
tp4388
a(g2954
Vhelp
p4389
tp4390
a(Vconquer
p4391
Vwhatever
p4392
tp4393
a(Vstarts
p4394
g2424
tp4395
a(Vspanish
p4396
g215
tp4397
a(Vpeppermint
p4398
g2038
tp4399
a(g557
g285
tp4400
a(Vniggas
p4401
Vbitches
p4402
tp4403
a(g3350
Vhold
p4404
tp4405
a(Vgoddoesnt
p4406
Vdisagreeing
p4407
tp4408
a(g1450
g2083
tp4409
a(Vummm
p4410
Vexcuse
p4411
tp4412
a(Vimphal
p4413
Vtimes
p4414
tp4415
a(V``
p4416
V/finally/
p4417
tp4418
a(Vsign
p4419
g1579
tp4420
a(Vwhite
p4421
Vrappers
p4422
tp4423
a(Vcoworkers
p4424
V...
p4425
tp4426
a(Vjmac_ai
p4427
g4315
tp4428
a(Vdeny
p4429
Vwaitwhat
p4430
tp4431
a(g1574
Vholiday
p4432
tp4433
a(Vdead
p4434
Vsquirrel
p4435
tp4436
a(g2411
g664
tp4437
a(Vunambiguous
p4438
g3985
tp4439
a(Vvia
p4440
Vfacebook
p4441
tp4442
a(g1139
Vromney
p4443
tp4444
a(g2767
Vasks
p4445
tp4446
a(g813
Vaway
p4447
tp4448
a(Vbetter
p4449
Vfeeling
p4450
tp4451
a(Vold
p4452
g2053
tp4453
a(Vdes
p4454
g230
tp4455
a(Vcaitlindelia
p4456
Vwaitwhat
p4457
tp4458
a(g2019
Vunambiguous
p4459
tp4460
a(Vivote4usa
p4461
V2/2
p4462
tp4463
a(g2885
Vvia
p4464
tp4465
a(V2234
p4466
Vjoin
p4467
tp4468
a(Vchildrens
p4469
Vbooks
p4470
tp4471
a(Vget
p4472
Vunambiguous
p4473
tp4474
a(g2356
g2065
tp4475
a(g868
Vum..i
p4476
tp4477
a(Vbandcamp
p4478
Vnailed
p4479
tp4480
a(Vrest
p4481
Vday
p4482
tp4483
a(Vnever
p4484
Vknew
p4485
tp4486
a(Vscribbled_death
p4487
Vwaitwhat
p4488
tp4489
a(Vsomeone
p4490
Vmind
p4491
tp4492
a(V``
p4493
Va+bc
p4494
tp4495
a(Vpregnant
p4496
Vaccording
p4497
tp4498
a(Vcollege
p4499
Vfootball
p4500
tp4501
a(g4058
Vnightmare
p4502
tp4503
a(g372
g131
tp4504
a(Vstraight
p4505
g3072
tp4506
a(Vgroin
p4507
g2657
tp4508
a(Vone
p4509
Vposter
p4510
tp4511
a(V2375
p4512
Vjoin
p4513
tp4514
a(g295
Vnewstation
p4515
tp4516
a(Vpeople
p4517
Vthink
p4518
tp4519
a(g668
Vlow
p4520
tp4521
a(V58
p4522
Vseconds
p4523
tp4524
a(Vdwyanewade
p4525
g3032
tp4526
a(g4025
g3770
tp4527
a(Vfull
p4528
g1103
tp4529
a(Vn't
p4530
g4429
tp4531
a(Vtake
p4532
Vchances
p4533
tp4534
a(V're
p4535
Vmasters
p4536
tp4537
a(Vtraveller
p4538
g3370
tp4539
a(V12.09
p4540
Vkm
p4541
tp4542
a(Vvisto
p4543
Vbull
p4544
tp4545
a(Vdeadly
p4546
g434
tp4547
a(V``
p4548
g1948
tp4549
a(g3624
g774
tp4550
a(Vran
p4551
g3193
tp4552
a(Vassault
p4553
Vbro
p4554
tp4555
a(g1056
Vspeaking
p4556
tp4557
a(g4112
g788
tp4558
a(g349
Vsense
p4559
tp4560
a(g3259
g1237
tp4561
a(Vcolleague
p4562
Vtells
p4563
tp4564
a(Vreally
p4565
Vfelt
p4566
tp4567
a(g2960
Vsoftware
p4568
tp4569
a(Vguy
p4570
Vjoins
p4571
tp4572
a(g325
Vc'est
p4573
tp4574
a(Vavavi_
p4575
g1029
tp4576
a(Vtrue
p4577
V...
p4578
tp4579
a(Vca
p4580
g4024
tp4581
a(g1778
V``
p4582
tp4583
a(Vuniform
p4584
Vlike
p4585
tp4586
a(Vgets
p4587
g2607
tp4588
a(g2320
g3285
tp4589
a(Vcurrent
p4590
Vtemperature
p4591
tp4592
a(Veagles
p4593
g1633
tp4594
a(g914
Vaccent
p4595
tp4596
a(Vshield..
p4597
Vwaitwhat
p4598
tp4599
a(Vtalk
p4600
Vbruh
p4601
tp4602
a(g3173
Vclass
p4603
tp4604
a(g1041
g3902
tp4605
a(g219
Vchange
p4606
tp4607
a(Vcomeback
p4608
Vcontinues
p4609
tp4610
a(Vdodgeball
p4611
g3540
tp4612
a(g2170
Vhard
p4613
tp4614
a(g3304
g1924
tp4615
a(Vbig
p4616
Vbully
p4617
tp4618
a(Varslan-
p4619
g206
tp4620
a(Vguys
p4621
Vwould
p4622
tp4623
a(Vexactly
p4624
g3347
tp4625
a(Vbag
p4626
Vplay
p4627
tp4628
a(g2184
Vwiegand
p4629
tp4630
a(Vtaking
p4631
Vphotos
p4632
tp4633
a(Vcould
p4634
g586
tp4635
a(Vpisze.ledwo
p4636
g679
tp4637
a(V``
p4638
Vboombox
p4639
tp4640
a(g3592
Vhighlights
p4641
tp4642
a(V's
p4643
g1714
tp4644
a(Vunambiguous
p4645
Vlanguage
p4646
tp4647
a(g1542
g4057
tp4648
a(Vretweet
p4649
Vgets
p4650
tp4651
a(Vone
p4652
V''
p4653
tp4654
a(Vhome
p4655
g3775
tp4656
a(Vak
p4657
Vwx
p4658
tp4659
a(Vni
p4660
Vte
p4661
tp4662
a(g2770
g1460
tp4663
a(Voakland
p4664
Vparty
p4665
tp4666
a(Vbrooklyn
p4667
Vdodger
p4668
tp4669
a(g4494
V''
p4670
tp4671
a(Vcheck
p4672
Vback
p4673
tp4674
a(Vwould
p4675
g631
tp4676
a(Vpouring
p4677
V...
p4678
tp4679
a(V'm
p4680
g1610
tp4681
a(Vnew
p4682
g1912
tp4683
a(g2414
g3420
tp4684
a(Vdylan
p4685
Vmcdermott
p4686
tp4687
a(Vn't
p4688
Vknow
p4689
tp4690
a(Vgrand
p4691
Vrapids
p4692
tp4693
a(Vbig
p4694
Vfat
p4695
tp4696
a(Vreasonable
p4697
Vtomorrow
p4698
tp4699
a(Vab
p4700
Vscored
p4701
tp4702
a(Vjack_septic_eye
p4703
Vlol
p4704
tp4705
a(Vi.d
p4706
Vlol
p4707
tp4708
a(Vrealdonaldtrump
p4709
Vthinks
p4710
tp4711
a(Vaway
p4712
Voverseas
p4713
tp4714
a(V'm
p4715
Vrunning
p4716
tp4717
a(Vunambiguous
p4718
Venemy
p4719
tp4720
a(Vplease
p4721
g1763
tp4722
a(Vgive
p4723
g3983
tp4724
a(Vgood
p4725
Vwin
p4726
tp4727
a(Vfinancial
p4728
Vaid
p4729
tp4730
a(g871
g4543
tp4731
a(g3993
g1512
tp4732
a(g2650
Vfucking
p4733
tp4734
a(g1809
Vwaitwhat
p4735
tp4736
a(Vex-nfl
p4737
g1997
tp4738
a(g4491
Vtelling
p4739
tp4740
a(g1302
Vlet
p4741
tp4742
a(V52
p4743
Vpercent
p4744
tp4745
a(Vday
p4746
V...
p4747
tp4748
a(Vmuslim
p4749
g1657
tp4750
a(g1533
Vshares
p4751
tp4752
a(Vrush
p4753
Vlimbaugh
p4754
tp4755
a(Vya
p4756
Vbarber
p4757
tp4758
a(Valoe
p4759
Vvera
p4760
tp4761
a(Vca
p4762
Vfait
p4763
tp4764
a(Vgreat
p4765
Vdeep
p4766
tp4767
a(g4098
Vfuriously
p4768
tp4769
a(Vcharms
p4770
g3669
tp4771
a(Vsaying
p4772
g3095
tp4773
a(Vjamerson
p4774
g2283
tp4775
a(Vmiamidolphins
p4776
Vlol
p4777
tp4778
a(Vceo
p4779
g1590
tp4780
a(Vton
p4781
g86
tp4782
a(Vgenesis_ebooks
p4783
V//waitwhat
p4784
tp4785
a(g4207
g3869
tp4786
a(g289
Veverytime
p4787
tp4788
a(Vconcrete
p4789
g2445
tp4790
a(V``
p4791
g3060
tp4792
a(Vmonster
p4793
Vlet
p4794
tp4795
a(Vfive
p4796
Vmins
p4797
tp4798
a(g2641
Vthomas
p4799
tp4800
a(V``
p4801
g3446
tp4802
a(g2359
Vrelationship
p4803
tp4804
a(Vwide
p4805
Vreceiver
p4806
tp4807
a(V'm
p4808
Vplaying
p4809
tp4810
a(g1467
Vshahzad
p4811
tp4812
a(g3371
Vcap
p4813
tp4814
a(g1104
Vsteps
p4815
tp4816
a(Vthink
p4817
Vanything
p4818
tp4819
a(Vshow
p4820
Vomg
p4821
tp4822
a(Vpugnansleaenae
p4823
V``
p4824
tp4825
a(V'm
p4826
g2919
tp4827
a(V...
p4828
Vok
p4829
tp4830
a(g3088
g1103
tp4831
a(g4441
Vinvites
p4832
tp4833
a(Vyoutube
p4834
g3104
tp4835
a(Vsale
p4836
V12/01
p4837
tp4838
a(Vteacher
p4839
Vsomeone
p4840
tp4841
a(Vnicholas
p4842
g1246
tp4843
a(Vjalen
p4844
Vrichard
p4845
tp4846
a(Vlast
p4847
Vweek
p4848
tp4849
a(g810
Vtelevisual
p4850
tp4851
a(g3552
V...
p4852
tp4853
a(Vshit
p4854
Veric
p4855
tp4856
a(Vequally
p4857
g3667
tp4858
a(g4199
Vaside
p4859
tp4860
a(g2375
V...
p4861
tp4862
a(Vberarti
p4863
g4168
tp4864
a(Veverybody
p4865
Vclick
p4866
tp4867
a(Vpotus
p4868
Vlook
p4869
tp4870
a(g4432
Vbrunch
p4871
tp4872
a(Vaccumulated
p4873
g1228
tp4874
a(g695
g1452
tp4875
a(g4323
V4
p4876
tp4877
a(Vv60
p4878
Vfilters
p4879
tp4880
a(Vna
p4881
Vdig
p4882
tp4883
a(Voh
p4884
Vwait
p4885
tp4886
a(Vravens
p4887
Vbeat
p4888
tp4889
a(Vattackerman
p4890
Voh
p4891
tp4892
a(Vcertainly
p4893
Vtorching
p4894
tp4895
a(g2773
Vn't
p4896
tp4897
a(Vlox
p4898
Vsigned
p4899
tp4900
a(Vbring
p4901
Vmike
p4902
tp4903
a(Vnuance
p4904
Vlead
p4905
tp4906
a(Vfb
p4907
Vpost
p4908
tp4909
a(Vpre-opening
p4910
Vmarch
p4911
tp4912
a(Vsir
p4913
Vlurksalot
p4914
tp4915
a(Vunequivocal
p4916
g2663
tp4917
a(g4435
V...
p4918
tp4919
a(g2704
Vknow
p4920
tp4921
a(g2869
Vcolder
p4922
tp4923
a(g2140
g3110
tp4924
a(Vlittle
p4925
Vkid
p4926
tp4927
a(Vont
p4928
g1550
tp4929
a(g2578
g3137
tp4930
a(Vim
p4931
Vfuycsbdkdbc
p4932
tp4933
a(Vyuurionviktor
p4934
Vwaitwhat
p4935
tp4936
a(V23
p4937
g2439
tp4938
a(Vdeep
p4939
Vthreat
p4940
tp4941
a(Vamazing
p4942
Vyear
p4943
tp4944
a(Vmissing
p4945
Vsomething
p4946
tp4947
a(Vn't
p4948
g520
tp4949
a(Vshameless
p4950
Vevil
p4951
tp4952
a(Vhyobvious
p4953
Vwaitwhat
p4954
tp4955
a(Vshoots
p4956
Vblk
p4957
tp4958
a(Vdunn
p4959
g2083
tp4960
a(g4733
g1249
tp4961
a(Vdolphins
p4962
V38-6
p4963
tp4964
a(Vgo
p4965
Vcheck
p4966
tp4967
a(Vread
p4968
Vmust
p4969
tp4970
a(Valpha
p4971
Vphi
p4972
tp4973
a(g736
Vmaaaay
p4974
tp4975
a(Vcome
p4976
Vtmobile
p4977
tp4978
a(Vanything
p4979
Vless
p4980
tp4981
a(g2977
g4675
tp4982
a(g945
Vclub
p4983
tp4984
a(Vn't
p4985
Vwork
p4986
tp4987
a(Vsay
p4988
Vyes
p4989
tp4990
a(Vlast
p4991
g3551
tp4992
a(Vass
p4993
g598
tp4994
a(Vsterling
p4995
Vmoore
p4996
tp4997
a(Vn't
p4998
Vlet
p4999
tp5000
a(Vclass
p5001
Vtonight
p5002
tp5003
a(Vfbx
p5004
g4657
tp5005
a(Vsomething
p5006
Velse
p5007
tp5008
a(g4695
Vfollow
p5009
tp5010
a(Vunambiguous
p5011
g2697
tp5012
a(g352
g3701
tp5013
a(g1244
g3585
tp5014
a(Vn't
p5015
Valready
p5016
tp5017
a(Vhearts
p5018
Vca
p5019
tp5020
a(Vshmaggie209
p5021
Vvote
p5022
tp5023
a(Vrandom
p5024
Vspam
p5025
tp5026
a(Vluis
p5027
Vfenero
p5028
tp5029
a(Vgood
p5030
g4854
tp5031
a(g1755
Vcachorro
p5032
tp5033
a(Vunambiguous
p5034
Vlaw
p5035
tp5036
a(Vn't
p5037
g3511
tp5038
a(g4787
V...
p5039
tp5040
a(Vfuuuu
p5041
V''
p5042
tp5043
a(Vcivilization
p5044
V's
p5045
tp5046
a(g3451
Vlol
p5047
tp5048
a(Vcoup
p5049
Vattempt
p5050
tp5051
a(Vhuman
p5052
Vproductivity
p5053
tp5054
a(Vstop
p5055
Vsussing
p5056
tp5057
a(g1551
g1075
tp5058
a(Vmorning_joe
p5059
g1035
tp5060
a(Vbig
p5061
Vstep
p5062
tp5063
a(Vsaw
p5064
g218
tp5065
a(g4214
V11-
p5066
tp5067
a(Vhockey
p5068
Vplayer
p5069
tp5070
a(g4473
Vconsent
p5071
tp5072
a(Vus
p5073
Vpopulation
p5074
tp5075
a(Vcard
p5076
g2794
tp5077
a(g3242
Vwitte
p5078
tp5079
a(Vclub
p5080
V1604
p5081
tp5082
a(Vblast
p5083
Vbeats
p5084
tp5085
a(Vass
p5086
Vtexter
p5087
tp5088
a(Vunambiguous
p5089
Vdirective
p5090
tp5091
a(Vinvestigators
p5092
g3292
tp5093
a(Vfeeling
p5094
Vdepressed
p5095
tp5096
a(g1562
g1449
tp5097
a(Vquix
p5098
g1842
tp5099
a(Vbasic
p5100
g2981
tp5101
a(Vdenver
p5102
g3017
tp5103
a(g1157
V''
p5104
tp5105
a(g4124
Vmi
p5106
tp5107
a(g4902
Vwilliams
p5108
tp5109
a(Vnever
p5110
Vsaid
p5111
tp5112
a(g4951
g1024
tp5113
a(Vya
p5114
g3599
tp5115
a(g960
g2896
tp5116
a(Vpulled
p5117
Vjersey
p5118
tp5119
a(g4768
g4240
tp5120
a(Vathertonkd
p5121
g4548
tp5122
a(Vlandon
p5123
Vcollins
p5124
tp5125
a(Vsworn
p5126
Vtestimony
p5127
tp5128
a(g5045
Vconquest
p5129
tp5130
a(Voffer
p5131
g3338
tp5132
a(V'll
p5133
Vinvestigate
p5134
tp5135
a(g4824
g3279
tp5136
a(g2595
Vintracies
p5137
tp5138
a(Vtwo
p5139
Vwhite
p5140
tp5141
a(Vhoe
p5142
Valone
p5143
tp5144
a(g984
Vhbo
p5145
tp5146
a(g102
Vfuentes
p5147
tp5148
a(Vculleton
p5149
V's
p5150
tp5151
a(Vbro
p5152
Vgot
p5153
tp5154
a(Vautomatically
p5155
Vchecked
p5156
tp5157
a(Vtext
p5158
g3320
tp5159
a(Vunambiguous
p5160
Vexplanations
p5161
tp5162
a(V12
p5163
Vmarathons
p5164
tp5165
a(Vthreatened
p5166
Vbiz
p5167
tp5168
a(Vgenial
p5169
Ves
p5170
tp5171
a(g1628
g2155
tp5172
a(V26.20
p5173
Vmi
p5174
tp5175
a(Vna
p5176
Vrazvesty
p5177
tp5178
a(Vget
p5179
Vwarm
p5180
tp5181
a(Vpublic
p5182
Vpolicy
p5183
tp5184
a(Vcongrats
p5185
Vwaitwhat
p5186
tp5187
a(Vfuck
p5188
Vfeminism
p5189
tp5190
a(Vqu
p5191
g5169
tp5192
a(g2943
g257
tp5193
a(Vtrash
p5194
g5086
tp5195
a(g1413
V...
p5196
tp5197
a(Vcolor
p5198
g1628
tp5199
a(Vscottie
p5200
g1980
tp5201
a(g984
g3181
tp5202
a(g3662
Vnaughty
p5203
tp5204
a(Vdakota
p5205
g3101
tp5206
a(Vsignal
p5207
g4312
tp5208
a(Vmouth
p5209
Vinjuries
p5210
tp5211
a(g417
Vreached
p5212
tp5213
a(Vran
p5214
g5173
tp5215
a(Vsumn
p5216
V''
p5217
tp5218
a(V...
p5219
g5024
tp5220
a(Vget
p5221
Vsuspecious
p5222
tp5223
a(Vmade
p5224
Vfun
p5225
tp5226
a(Vjustdoit_swank
p5227
g4100
tp5228
a(g4850
Vlease
p5229
tp5230
a(g319
Vcarols
p5231
tp5232
a(g9
g797
tp5233
a(g479
g3048
tp5234
a(Vdegrees
p5235
Vthough
p5236
tp5237
a(Vheaded
p5238
g4793
tp5239
a(g426
Vstick
p5240
tp5241
a(Vhooping
p5242
Varound
p5243
tp5244
a(Vproblem
p5245
g2849
tp5246
a(g4573
g1507
tp5247
a(Vunambiguous
p5248
V...
p5249
tp5250
a(Vunlimited
p5251
Vtogether
p5252
tp5253
a(g4101
Vbull
p5254
tp5255
a(g1392
Vlame
p5256
tp5257
a(Vpint
p5258
g3781
tp5259
a(Vboring
p5260
g4993
tp5261
a(Vaxsup
p5262
Vwaitwhat
p5263
tp5264
a(g1849
g4737
tp5265
a(Vgo_dumb_dee
p5266
g3827
tp5267
a(Vima
p5268
g717
tp5269
a(g2972
g2189
tp5270
a(Vta
p5271
Vmake
p5272
tp5273
a(V350
p5274
Vmil
p5275
tp5276
a(Vcute
p5277
Vwtf
p5278
tp5279
a(Vn't
p5280
Vtweet
p5281
tp5282
a(Vrefugees
p5283
V''
p5284
tp5285
a(g692
V...
p5286
tp5287
a(Vmanicured
p5288
Vtoes
p5289
tp5290
a(Vuhmmm
p5291
V...
p5292
tp5293
a(Vmuch
p5294
g3588
tp5295
a(Vshit
p5296
Vriding
p5297
tp5298
a(g4794
V's
p5299
tp5300
a(g5196
g1729
tp5301
a(Vran
p5302
g1165
tp5303
a(Vcruising
p5304
Vdtlb
p5305
tp5306
a(g2581
Vlike
p5307
tp5308
a(Vbig
p5309
Vs/o
p5310
tp5311
a(g1934
g1093
tp5312
a(Vsuper
p5313
Vsure
p5314
tp5315
a(Vclinton
p5316
Vstates
p5317
tp5318
a(g1998
Vwithout
p5319
tp5320
a(Vsoggysadboi
p5321
Vwaitwhat
p5322
tp5323
a(Vpink
p5324
Vsection
p5325
tp5326
a(g331
Vbien
p5327
tp5328
a(Vlxke_pengxin
p5329
Vwaitwhat
p5330
tp5331
a(g491
Vint
p5332
tp5333
a(Vyo
p5334
g3762
tp5335
a(Vran
p5336
g4540
tp5337
a(g4911
V21
p5338
tp5339
a(g5062
Vforward
p5340
tp5341
a(Vlittle
p5342
Vconfused
p5343
tp5344
a(g1628
V40
p5345
tp5346
a(Vmystical
p5347
Vland
p5348
tp5349
a(Vget
p5350
Vshit
p5351
tp5352
a(Vdays
p5353
Vago
p5354
tp5355
a(Vrun6,2km
p5356
V5dec,9:00pm
p5357
tp5358
a(Vsymbols
p5359
g1833
tp5360
a(Vannual
p5361
Vbill
p5362
tp5363
a(g4754
g4469
tp5364
a(Vc'est
p5365
Vdu
p5366
tp5367
a(Vdel
p5368
Vtiempo
p5369
tp5370
a(Vun
p5371
g589
tp5372
a(Vnike
p5373
Vschools
p5374
tp5375
a(Vunambiguous
p5376
g2058
tp5377
a(Vzihniozdil
p5378
g697
tp5379
a(Vscratch
p5380
Vaccentuate
p5381
tp5382
a(Vmany
p5383
Vpeople
p5384
tp5385
a(Vlive
p5386
Vlife
p5387
tp5388
a(V's
p5389
g318
tp5390
a(Vgo
p5391
Vfull
p5392
tp5393
a(Vgnstig
p5394
Vfu-
p5395
tp5396
a(g1269
Vswim
p5397
tp5398
a(Vleahremini
p5399
Vthank
p5400
tp5401
a(Vsmart
p5402
g4538
tp5403
a(Vstarted
p5404
g643
tp5405
a(g527
Vmi
p5406
tp5407
a(Vmake
p5408
g1434
tp5409
a(Vreally
p5410
Vneed
p5411
tp5412
a(Vplot
p5413
Vthickens
p5414
tp5415
a(Vran
p5416
g3697
tp5417
a(g4845
Vbursts
p5418
tp5419
a(Vnfl
p5420
g782
tp5421
a(Vjavalemcgee34
p5422
g5152
tp5423
a(V's
p5424
g3379
tp5425
a(g2151
g4562
tp5426
a(g1079
Val
p5427
tp5428
a(Vreally
p5429
Vfishy
p5430
tp5431
a(g804
V7-day
p5432
tp5433
a(Vword
p5434
g1084
tp5435
a(g3744
g4991
tp5436
a(g1828
g4073
tp5437
a(g3617
g3314
tp5438
a(Vwish
p5439
Vha
p5440
tp5441
a(Vvlbonilla
p5442
Vwaitwhat
p5443
tp5444
a(Vlooking
p5445
g1208
tp5446
a(Vnever
p5447
Vknow
p5448
tp5449
a(Vunambiguous
p5450
Vrefusal
p5451
tp5452
a(Vsmells
p5453
g5429
tp5454
a(Vball
p5455
Vtho
p5456
tp5457
a(g3157
Vlol
p5458
tp5459
a(Vran
p5460
g3210
tp5461
a(g5170
g2951
tp5462
a(Vleave
p5463
Vverizon
p5464
tp5465
a(Vuooaaa
p5466
Vumedeto
p5467
tp5468
a(Vplayed
p5469
Vtennessee
p5470
tp5471
a(Vfrancisco
p5472
g3759
tp5473
a(Vweek
p5474
g5424
tp5475
a(g3760
g1744
tp5476
a(Veating
p5477
V...
p5478
tp5479
a(g63
Vrock
p5480
tp5481
a(Vgot
p5482
Vcalled
p5483
tp5484
a(Vpatriots
p5485
Vdefeat
p5486
tp5487
a(g984
Vpoint
p5488
tp5489
a(Vgraduation
p5490
V...
p5491
tp5492
a(g201
g4079
tp5493
a(V's
p5494
Vquestions
p5495
tp5496
a(g1296
Vcommercials
p5497
tp5498
a(g1088
g574
tp5499
a(Vcompletely
p5500
Vconcealed
p5501
tp5502
a(Voooh
p5503
Vsexy
p5504
tp5505
a(Vibujalyl
p5506
Vcode
p5507
tp5508
a(Vshow
p5509
Vcold
p5510
tp5511
a(Vsunday
p5512
Vrun
p5513
tp5514
a(V3.7
p5515
g5235
tp5516
a(Vbetter
p5517
Vway
p5518
tp5519
a(g656
g2413
tp5520
a(Vabsurd
p5521
V''
p5522
tp5523
a(Vone
p5524
Vperson
p5525
tp5526
a(g4763
g1595
tp5527
a(Vgray
p5528
Vcurtian
p5529
tp5530
a(g3665
Vpossible
p5531
tp5532
a(Vmany
p5533
Vothers
p5534
tp5535
a(Vla
p5536
Vcroix
p5537
tp5538
a(Vbanging
p5539
Vmovies
p5540
tp5541
a(Vlaht
p5542
Vdecisive
p5543
tp5544
a(V//
p5545
g5155
tp5546
a(g4957
Vchurch
p5547
tp5548
a(Vnews
p5549
Vgently
p5550
tp5551
a(g3978
Vrounds
p5552
tp5553
a(V``
p5554
Vjoin
p5555
tp5556
a(g1937
Vtime
p5557
tp5558
a(Vstill
p5559
Vmissing
p5560
tp5561
a(g2979
Vfifa
p5562
tp5563
a(g3298
Vkm
p5564
tp5565
a(Vchristmas
p5566
Vholidays
p5567
tp5568
a(Vfeels
p5569
Vlike
p5570
tp5571
a(Vskip
p5572
g1377
tp5573
a(g1795
Vtonight
p5574
tp5575
a(Vt'as
p5576
Vmis
p5577
tp5578
a(Vphone
p5579
Vsays
p5580
tp5581
a(g1727
g4876
tp5582
a(Vpublic
p5583
Vvoted
p5584
tp5585
a(g1628
Vdead
p5586
tp5587
a(Vpretty
p5588
Vsure
p5589
tp5590
a(g2927
Vdifikiran
p5591
tp5592
a(g5577
g4781
tp5593
a(g3230
Vtalk
p5594
tp5595
a(Vvia
p5596
V/r/funny
p5597
tp5598
a(Vafrican
p5599
Vhall
p5600
tp5601
a(g4470
Vbanned
p5602
tp5603
a(Vdonny
p5604
Vosmond
p5605
tp5606
a(Vmusical
p5607
Vtheatre
p5608
tp5609
a(Vtonistark4real
p5610
Vwaitwhat
p5611
tp5612
a(Vireland
p5613
Vbuys
p5614
tp5615
a(g3151
Vrun
p5616
tp5617
a(g5432
Vpass
p5618
tp5619
a(Vleast
p5620
g1628
tp5621
a(Vplay
p5622
V...
p5623
tp5624
a(g3160
g2247
tp5625
a(g4476
Vgot
p5626
tp5627
a(g4001
g879
tp5628
a(V``
p5629
g3357
tp5630
a(V'm
p5631
Vstill
p5632
tp5633
a(Vrare
p5634
g3809
tp5635
a(g5177
g1854
tp5636
a(g2758
Vtruer
p5637
tp5638
a(g4055
Vatop
p5639
tp5640
a(Vfavourite
p5641
Vmovements
p5642
tp5643
a(g4760
Vmight
p5644
tp5645
a(g2536
Vmust
p5646
tp5647
a(g2828
Vque
p5648
tp5649
a(Vreal
p5650
Vtalk
p5651
tp5652
a(Vfeel
p5653
g1909
tp5654
a(V'm
p5655
g5094
tp5656
a(g4146
Vtime
p5657
tp5658
a(Vplaying
p5659
Vtoday
p5660
tp5661
a(g5366
Vpunk
p5662
tp5663
a(Vfidel
p5664
g1880
tp5665
a(g4115
Vtho
p5666
tp5667
a(Vnike
p5668
V's
p5669
tp5670
a(Vjjhorgan
p5671
g2643
tp5672
a(g5626
Vnothin
p5673
tp5674
a(g1036
Vn't
p5675
tp5676
a(Vutterly
p5677
Vnovel
p5678
tp5679
a(Vqb
p5680
g1210
tp5681
a(g51
Vummm
p5682
tp5683
a(g5525
Vunfollowed
p5684
tp5685
a(g1287
Vpotus
p5686
tp5687
a(Vlike
p5688
g62
tp5689
a(V're
p5690
Veyes
p5691
tp5692
a(Vfacebook
p5693
Vfriends
p5694
tp5695
a(g4639
Vcartel
p5696
tp5697
a(Vclub
p5698
g2523
tp5699
a(Vplumeria_eskull
p5700
Vwaitwhat
p5701
tp5702
a(g3269
V's
p5703
tp5704
a(g4716
Vlow
p5705
tp5706
a(g4161
g4910
tp5707
a(Valmost
p5708
Vlike
p5709
tp5710
a(Vn't
p5711
Vhang
p5712
tp5713
a(g3932
g345
tp5714
a(Vunambiguous
p5715
Vmessage
p5716
tp5717
a(g2202
Vtrue
p5718
tp5719
a(Vmiss
p5720
Vmahoutokoro
p5721
tp5722
a(V's
p5723
g4553
tp5724
a(Vcredit
p5725
Vcard
p5726
tp5727
a(g1206
Vmedia
p5728
tp5729
a(g2083
g5238
tp5730
a(g2148
Vsometimes
p5731
tp5732
a(Vnew
p5733
g3039
tp5734
a(g5150
Varguments
p5735
tp5736
a(Vextant
p5737
g4106
tp5738
a(Vchinese
p5739
Vclub
p5740
tp5741
a(Vstop
p5742
Vpounding
p5743
tp5744
a(g1163
g2842
tp5745
a(Vtrans
p5746
Vlist
p5747
tp5748
a(Vtreadmill
p5749
g3127
tp5750
a(Vsocial
p5751
Vmedia
p5752
tp5753
a(Vvente
p5754
Vconmigo
p5755
tp5756
a(g4278
Vbills
p5757
tp5758
a(g3828
Vmean
p5759
tp5760
a(V13
p5761
Vyrs
p5762
tp5763
a(Vj'lonte
p5764
g3167
tp5765
a(g3916
Vpeople
p5766
tp5767
a(g2030
Vdawns
p5768
tp5769
a(V``
p5770
g5283
tp5771
a(V's
p5772
g5708
tp5773
a(g1655
Vvan
p5774
tp5775
a(g4249
g1856
tp5776
a(V10
p5777
g4626
tp5778
a(Vnyc
p5779
Vgot
p5780
tp5781
a(Vescola
p5782
Vbrasileira
p5783
tp5784
a(Vlook
p5785
Vclosely
p5786
tp5787
a(Vle
p5788
g1360
tp5789
a(Vfemales
p5790
g173
tp5791
a(Vfinest
p5792
g5376
tp5793
a(g1099
Vplaying
p5794
tp5795
a(g497
Vicc
p5796
tp5797
a(g4109
Vhein
p5798
tp5799
a(Vblast
p5800
g1446
tp5801
a(g4500
Vplayoff
p5802
tp5803
a(g3522
Vsoftware
p5804
tp5805
a(Vbest
p5806
g4254
tp5807
a(Vunambiguous
p5808
Vplan
p5809
tp5810
a(Vjmac_ai
p5811
Va+bc
p5812
tp5813
a(Vnrjhitmusiconly
p5814
Vaward
p5815
tp5816
a(g4622
Vlighten
p5817
tp5818
a(g189
g1032
tp5819
a(g3312
V''
p5820
tp5821
a(Vpreviously
p5822
Vcondorcet
p5823
tp5824
a(Vccoombs1964
p5825
Vwaitwhat
p5826
tp5827
a(Vleft
p5828
Varm
p5829
tp5830
a(Voakland
p5831
Vwarehouse
p5832
tp5833
a(g3347
Vminute
p5834
tp5835
a(V'm
p5836
Vlearning
p5837
tp5838
a(Vwell
p5839
Vdeserv
p5840
tp5841
a(Vtherealjrsmith
p5842
Valways
p5843
tp5844
a(g272
Vpour
p5845
tp5846
a(Vtv
p5847
Vad
p5848
tp5849
a(Vvon
p5850
Vmiller
p5851
tp5852
a(g48
g2583
tp5853
a(Vcommunal
p5854
Vcohesion
p5855
tp5856
a(g653
Vunambiguous
p5857
tp5858
a(g3713
g3335
tp5859
a(g2387
Vrealizing
p5860
tp5861
a(Vgreat
p5862
Vdrivers
p5863
tp5864
a(Vacting
p5865
g5001
tp5866
a(g569
g5599
tp5867
a(Vfoxonabox_
p5868
Vfunny
p5869
tp5870
a(Vevery
p5871
Vplayer
p5872
tp5873
a(Vrupert_travis
p5874
Vwhilst
p5875
tp5876
a(Vsang
p5877
Vgerman
p5878
tp5879
a(Vbc
p5880
Vprecedent
p5881
tp5882
a(g2539
g932
tp5883
a(g1154
Vknives/protect
p5884
tp5885
a(Vunambiguous
p5886
Vnature
p5887
tp5888
a(g2131
g5368
tp5889
a(Vnononojo
p5890
g1868
tp5891
a(Vencouraging
p5892
Vspirit
p5893
tp5894
a(g4402
g2682
tp5895
a(Vtyler
p5896
Vspilled
p5897
tp5898
a(V11am
p5899
g2093
tp5900
a(Vcomfort
p5901
Vzone
p5902
tp5903
a(Vrazor
p5904
g803
tp5905
a(g3636
V``
p5906
tp5907
a(V``
p5908
g2433
tp5909
a(V1.5b+
p5910
g5361
tp5911
a(Vtryna
p5912
Vforce
p5913
tp5914
a(Vtrue
p5915
Videas
p5916
tp5917
a(Vinformation
p5918
Vliterally
p5919
tp5920
a(g249
g291
tp5921
a(g1472
g3857
tp5922
a(g3025
Vever
p5923
tp5924
a(Vget
p5925
g3055
tp5926
a(Vtogether
p5927
g1830
tp5928
a(g2616
Vlike
p5929
tp5930
a(g5675
g107
tp5931
a(V412
p5932
g3450
tp5933
a(g304
g460
tp5934
a(Vsomwhat
p5935
Vawkward
p5936
tp5937
a(Vlonzo
p5938
g3930
tp5939
a(V'm
p5940
Vweak
p5941
tp5942
a(g3852
g2976
tp5943
a(Vdaybook
p5944
Vlaptops
p5945
tp5946
a(Vflipkart
p5947
g4779
tp5948
a(Vjogging
p5949
g3142
tp5950
a(Vsecond
p5951
g1067
tp5952
a(g4252
g1292
tp5953
a(Vcastro
p5954
Vgtx
p5955
tp5956
a(Vconsortium
p5957
Vlead
p5958
tp5959
a(V2.28
p5960
Vmiles
p5961
tp5962
a(Vshit
p5963
Vlmao
p5964
tp5965
a(g3033
Vlike
p5966
tp5967
a(Vramsnfl
p5968
V26-10
p5969
tp5970
a(g3447
g887
tp5971
a(Vamy
p5972
Vsherman-palladino
p5973
tp5974
a(Vpresident-elect
p5975
g3367
tp5976
a(g4169
Vkurus
p5977
tp5978
a(V20k
p5979
Vva
p5980
tp5981
a(Vzennybleats
p5982
g303
tp5983
a(Vrebehold
p5984
g809
tp5985
a(g414
Vwanting
p5986
tp5987
a(g2733
g882
tp5988
a(g3622
g4454
tp5989
a(Vsports
p5990
Vavoiding
p5991
tp5992
a(g3432
g4672
tp5993
a(Vws
p5994
Vplatform
p5995
tp5996
a(V``
p5997
g5055
tp5998
a(Vppl
p5999
g2216
tp6000
a(g3541
Vnight
p6001
tp6002
a(Vunambiguous
p6003
Vgazes
p6004
tp6005
a(Vfeinsteins
p6006
Vshow
p6007
tp6008
a(Vwan
p6009
g5176
tp6010
a(Vlables
p6011
Vstop
p6012
tp6013
a(g4338
g5472
tp6014
a(V2601
p6015
Vjoin
p6016
tp6017
a(Vfelipe
p6018
Vmontoya
p6019
tp6020
a(g3418
g315
tp6021
a(g2990
g2479
tp6022
a(g880
Vfuck
p6023
tp6024
a(g1611
g625
tp6025
a(Vperfectly
p6026
Vclear
p6027
tp6028
a(Vte
p6029
Vvayas
p6030
tp6031
a(g4014
Vmall
p6032
tp6033
a(Vcllrsmccabe
p6034
g5408
tp6035
a(g5632
Vwaiting
p6036
tp6037
a(Vcockeyed
p6038
Vreply
p6039
tp6040
a(g3148
g4928
tp6041
a(Vmud
p6042
Vfence
p6043
tp6044
a(Vdiscussing
p6045
g5607
tp6046
a(Vheating
p6047
Vbaseboard
p6048
tp6049
a(Vkproulx_
p6050
g1052
tp6051
a(g727
Vrugby
p6052
tp6053
a(Vbb
p6054
g726
tp6055
a(V2621
p6056
Vjoin
p6057
tp6058
a(Vteam
p6059
Vcares
p6060
tp6061
a(Velecting
p6062
Vhil
p6063
tp6064
a(Vws
p6065
g2337
tp6066
a(g1596
g2589
tp6067
a(Vhouse
p6068
Vhunting
p6069
tp6070
a(g5289
V...
p6071
tp6072
a(g84
g3127
tp6073
a(Vbaby
p6074
g11
tp6075
a(Vstill
p6076
Vsore
p6077
tp6078
a(Vfinals
p6079
Valready
p6080
tp6081
a(g5845
g3477
tp6082
a(g4459
g1016
tp6083
a(Vstate
p6084
Vpolls
p6085
tp6086
a(Vremote
p6087
Vcamera
p6088
tp6089
a(g3395
Vfood
p6090
tp6091
a(g2507
Vmusic
p6092
tp6093
a(Vdemolish
p6094
Veverything
p6095
tp6096
a(Vstart
p6097
g5659
tp6098
a(Vlike
p6099
g5139
tp6100
a(Vrt
p6101
Voh
p6102
tp6103
a(Vmay
p6104
Vbest
p6105
tp6106
a(g1737
Vmountain
p6107
tp6108
a(g5319
Vch
p6109
tp6110
a(Vtrump
p6111
g1322
tp6112
a(Vnorth
p6113
Vlondon
p6114
tp6115
a(Vcould
p6116
g1156
tp6117
a(g2142
g1098
tp6118
a(Vblind
p6119
Videalism
p6120
tp6121
a(g2121
Vteams
p6122
tp6123
a(Vwidely
p6124
Vreported
p6125
tp6126
a(V...
p6127
V.what
p6128
tp6129
a(g2730
g2464
tp6130
a(g4502
V...
p6131
tp6132
a(Vdemocracies
p6133
Vought
p6134
tp6135
a(Vjustdoit_swank
p6136
Vbanks
p6137
tp6138
a(Vpretty
p6139
Vproductive
p6140
tp6141
a(Vcoronation
p6142
g2735
tp6143
a(g5022
g5536
tp6144
a(V*record
p6145
Vscratch
p6146
tp6147
a(Vextra
p6148
g4304
tp6149
a(Vcommunist
p6150
Vcountry
p6151
tp6152
a(V've
p6153
Vnever
p6154
tp6155
a(g2911
Vunambiguous
p6156
tp6157
a(Vspotify
p6158
Vplaylist
p6159
tp6160
a(g6154
g2757
tp6161
a(g3363
Vmi
p6162
tp6163
a(Vbadass
p6164
g4421
tp6165
a(Vbayoolufemi
p6166
Vgreat
p6167
tp6168
a(V's
p6169
g448
tp6170
a(V...
p6171
g3397
tp6172
a(g3501
Vdesiigner
p6173
tp6174
a(g5483
g4712
tp6175
a(g2647
V''
p6176
tp6177
a(g1874
Vrose
p6178
tp6179
a(V's
p6180
Vfake
p6181
tp6182
a(g4665
Vvia
p6183
tp6184
a(Voffice
p6185
V...
p6186
tp6187
a(Vpersonal
p6188
Vposition
p6189
tp6190
a(g5299
Vget
p6191
tp6192
a(Vdemonstrate
p6193
g2836
tp6194
a(g4232
Vmi
p6195
tp6196
a(Vtwo
p6197
Vsets
p6198
tp6199
a(Vbrief
p6200
Vpause
p6201
tp6202
a(Viron
p6203
Vbowl
p6204
tp6205
a(Vrelated
p6206
Vnews
p6207
tp6208
a(Vperformance
p6209
g1406
tp6210
a(Vpaces
p6211
g984
tp6212
a(Vmonday
p6213
Vlike
p6214
tp6215
a(g4744
Vvoted
p6216
tp6217
a(Vdetails
p6218
g702
tp6219
a(Vunambiguous
p6220
Vposition
p6221
tp6222
a(Vmale
p6223
Vrate
p6224
tp6225
a(Vchina
p6226
Vmfg
p6227
tp6228
a(Vpeople
p6229
g4242
tp6230
a(g957
g5984
tp6231
a(g42
Vstarted
p6232
tp6233
a(Vsay
p6234
V'skateboard
p6235
tp6236
a(g1734
Vdifficult
p6237
tp6238
a(g1444
V''
p6239
tp6240
a(Vfavorite
p6241
Voutfits
p6242
tp6243
a(Vcountry
p6244
V...
p6245
tp6246
a(g4482
Vtoday
p6247
tp6248
a(Vputting
p6249
g122
tp6250
a(g213
Vknotenpunkte
p6251
tp6252
a(Vlos
p6253
Vcampeones
p6254
tp6255
a(Vdeliberate
p6256
Vdolt
p6257
tp6258
a(g4972
g1480
tp6259
a(Vone
p6260
g5158
tp6261
a(g5430
V...
p6262
tp6263
atp6264
Rp6265
.